///////////////////////////////////////////////////////////////////////////////
//
// IAR C/C++ Compiler V7.10.1.973/W32 for MSP430          02/Aug/2021  17:19:13
// Copyright 1996-2017 IAR Systems AB.
// Standalone license - IAR Embedded Workbench for Texas Instruments MSP430
//
//    __rt_version  =  3
//    __double_size =  32
//    __reg_r4      =  free
//    __reg_r5      =  free
//    __pic         =  no
//    __core        =  430X
//    __data_model  =  large
//    __code_model  =  large
//    Source file   =  D:\Dev\IAR\5529_MPU6050\HardWare\mpu6050\mpu6050.c
//    Command line  =  
//        -f C:\Users\Jeans\AppData\Local\Temp\EW8FF7.tmp
//        (D:\Dev\IAR\5529_MPU6050\HardWare\mpu6050\mpu6050.c -D NDEBUG -D
//        RAM_VECTOR -lC D:\Dev\IAR\5529_MPU6050\Release\List -lA
//        D:\Dev\IAR\5529_MPU6050\Release\List -o
//        D:\Dev\IAR\5529_MPU6050\Release\Obj --debug -D__MSP430F5529__ -e
//        --double=32 --dlib_config D:\Dev\IAR\430\lib\dlib\dl430xllfn.h -I
//        D:\Dev\IAR\5529_MPU6050\ -I D:\Dev\IAR\5529_MPU6050\Drivers\inc\ -I
//        D:\Dev\IAR\5529_MPU6050\Drivers\src\ -I
//        D:\Dev\IAR\5529_MPU6050\HardWare\ -I
//        D:\Dev\IAR\5529_MPU6050\HardWare\led\ -I
//        D:\Dev\IAR\5529_MPU6050\HardWare\key\ -I
//        D:\Dev\IAR\5529_MPU6050\HardWare\lcd\ -I
//        D:\Dev\IAR\5529_MPU6050\HardWare\lcd_api\ -I
//        D:\Dev\IAR\5529_MPU6050\HardWare\nrf24l01\ -I
//        D:\Dev\IAR\5529_MPU6050\HardWare\oled\ -I
//        D:\Dev\IAR\5529_MPU6050\HardWare\delay\ -I
//        D:\Dev\IAR\5529_MPU6050\HardWare\2.2TFT\ -I
//        D:\Dev\IAR\5529_MPU6050\System\ -I
//        D:\Dev\IAR\5529_MPU6050\System\inc\ -I
//        D:\Dev\IAR\5529_MPU6050\System\src\ -I D:\Dev\IAR\5529_MPU6050\User\
//        -I D:\Dev\IAR\5529_MPU6050\User\USER\ -I
//        D:\Dev\IAR\5529_MPU6050\HardWare\mpu6050\ --core=430X
//        --data_model=large -Oh --multiplier=32 --hw_workaround=CPU40
//        --hw_workaround=nop_after_lpm -DNDEBUG --code_model=large)
//    Locale        =  Chinese (Simplified)_CHN.936
//    List file     =  D:\Dev\IAR\5529_MPU6050\Release\List\mpu6050.s43
//
///////////////////////////////////////////////////////////////////////////////

        NAME mpu6050

        RTMODEL "__SystemLibrary", "DLib"
        RTMODEL "__code_model", "large"
        RTMODEL "__core", "430X"
        RTMODEL "__data_model", "large"
        RTMODEL "__double_size", "32"
        RTMODEL "__pic", "no"
        RTMODEL "__reg_r4", "free"
        RTMODEL "__reg_r5", "free"
        RTMODEL "__rt_version", "3"

        RSEG CSTACK:DATA:SORT:NOROOT(0)

        EXTERN ?DivMod16s
        EXTERN _Sub32f
        EXTERN _Mul32f
        EXTERN _Add32f
        EXTERN _Cast32uto32f
        EXTERN _Div32f
        EXTERN _Cast32sto32f
        EXTERN ?cstart_init_copy20
        EXTERN ?cstart_init_zero20
        EXTERN ?longjmp_r4
        EXTERN ?longjmp_r5
        EXTERN ?setjmp_r4
        EXTERN ?setjmp_r5

        PUBWEAK ?setjmp_save_r4
        PUBWEAK ?setjmp_save_r5
        PUBLIC Angle_X_Final_Kalman
        PUBLIC Angle_Y_Final_Kalman
        PUBLIC Angle_Y_Final_Kalman_last
        PUBLIC Angle_err
        PUBLIC Angle_x_temp
        PUBLIC Angle_y_temp
        PUBLIC C_0
        PUBLIC E
        PUBLIC Gyro_x
        PUBLIC Gyro_y
        PUBLIC Gyro_z
        PUBLIC IIC_RecvACK
        PUBLIC IIC_RecvByte
        PUBLIC IIC_SendACK
        PUBLIC IIC_SendByte
        PUBLIC IIC_Start
        PUBLIC IIC_Stop
        PUBLIC K_0
        PUBLIC K_1
        PUBLIC Kalman_Filter_X
        PUBLIC Kalman_Filter_Y
        PUBLIC MPU6050_GET
        PUBLIC MPU6050_INIT
        PUBLIC MPU6050_Tim
        PUBLIC PCt_0
        PUBLIC PCt_1
        PUBLIC PP
        PUBLIC Pdot
        PUBLIC Q_angle
        PUBLIC Q_bias
        PUBLIC Q_gyro
        PUBLIC R_angle
        PUBLIC Single_ReadIIC
        PUBLIC Single_WriteIIC
        PUBWEAK _A_PBDIR_L
        PUBWEAK _A_PBIN_L
        PUBWEAK _A_PBOUT_L
        PUBLIC ax
        PUBLIC ay
        PUBLIC az
        PUBLIC dt
        PUBLIC t_0
        PUBLIC t_1
        
          CFI Names cfiNames0
          CFI StackFrame CFA SP DATA
          CFI Resource PC:20, SP:20, SR:16, R4L:16, R4H:4, R4:20, R5L:16, R5H:4
          CFI Resource R5:20, R6L:16, R6H:4, R6:20, R7L:16, R7H:4, R7:20, R8L:16
          CFI Resource R8H:4, R8:20, R9L:16, R9H:4, R9:20, R10L:16, R10H:4
          CFI Resource R10:20, R11L:16, R11H:4, R11:20, R12L:16, R12H:4, R12:20
          CFI Resource R13L:16, R13H:4, R13:20, R14L:16, R14H:4, R14:20, R15L:16
          CFI Resource R15H:4, R15:20
          CFI ResourceParts R4 R4H, R4L
          CFI ResourceParts R5 R5H, R5L
          CFI ResourceParts R6 R6H, R6L
          CFI ResourceParts R7 R7H, R7L
          CFI ResourceParts R8 R8H, R8L
          CFI ResourceParts R9 R9H, R9L
          CFI ResourceParts R10 R10H, R10L
          CFI ResourceParts R11 R11H, R11L
          CFI ResourceParts R12 R12H, R12L
          CFI ResourceParts R13 R13H, R13L
          CFI ResourceParts R14 R14H, R14L
          CFI ResourceParts R15 R15H, R15L
          CFI EndNames cfiNames0
        
          CFI Common cfiCommon0 Using cfiNames0
          CFI CodeAlign 2
          CFI DataAlign 2
          CFI ReturnAddress PC CODE
          CFI CFA SP+4
          CFI PC Frame(CFA, -4)
          CFI SR Undefined
          CFI R4L SameValue
          CFI R4H SameValue
          CFI R4 Concat
          CFI R5L SameValue
          CFI R5H SameValue
          CFI R5 Concat
          CFI R6L SameValue
          CFI R6H SameValue
          CFI R6 Concat
          CFI R7L SameValue
          CFI R7H SameValue
          CFI R7 Concat
          CFI R8L SameValue
          CFI R8H SameValue
          CFI R8 Concat
          CFI R9L SameValue
          CFI R9H SameValue
          CFI R9 Concat
          CFI R10L SameValue
          CFI R10H SameValue
          CFI R10 Concat
          CFI R11L SameValue
          CFI R11H SameValue
          CFI R11 Concat
          CFI R12L Undefined
          CFI R12H Undefined
          CFI R12 Undefined
          CFI R13L Undefined
          CFI R13H Undefined
          CFI R13 Undefined
          CFI R14L Undefined
          CFI R14H Undefined
          CFI R14 Undefined
          CFI R15L Undefined
          CFI R15H Undefined
          CFI R15 Undefined
          CFI EndCommon cfiCommon0
        
        
          CFI Common cfiCommon1 Using cfiNames0
          CFI CodeAlign 2
          CFI DataAlign 2
          CFI ReturnAddress PC CODE
          CFI CFA SP+4
          CFI PC Frame(CFA, -4)
          CFI SR Undefined
          CFI R4L SameValue
          CFI R4H SameValue
          CFI R4 Concat
          CFI R5L SameValue
          CFI R5H SameValue
          CFI R5 Concat
          CFI R6L SameValue
          CFI R6H SameValue
          CFI R6 Concat
          CFI R7L SameValue
          CFI R7H SameValue
          CFI R7 Concat
          CFI R8L SameValue
          CFI R8H SameValue
          CFI R8 Concat
          CFI R9L SameValue
          CFI R9H SameValue
          CFI R9 Concat
          CFI R10L SameValue
          CFI R10H SameValue
          CFI R10 Concat
          CFI R11L SameValue
          CFI R11H SameValue
          CFI R11 Concat
          CFI R12L SameValue
          CFI R12H SameValue
          CFI R12 Concat
          CFI R13L SameValue
          CFI R13H SameValue
          CFI R13 Concat
          CFI R14L SameValue
          CFI R14H SameValue
          CFI R14 Concat
          CFI R15L SameValue
          CFI R15H SameValue
          CFI R15 Concat
          CFI EndCommon cfiCommon1
        
        EXTERN atan
        EXTERN sqrt

// D:\Dev\IAR\5529_MPU6050\HardWare\mpu6050\mpu6050.c
//    1 #include <mpu6050.h>

        ASEGN DATA16_AN:DATA:NOROOT,0220H
// union <unnamed> __data16 _A_PBIN_L
_A_PBIN_L:
        DS8 2

        ASEGN DATA16_AN:DATA:NOROOT,0222H
// union <unnamed> __data16 _A_PBOUT_L
_A_PBOUT_L:
        DS8 2

        ASEGN DATA16_AN:DATA:NOROOT,0224H
// union <unnamed> __data16 _A_PBDIR_L
_A_PBDIR_L:
        DS8 2
//    2 #include <include.h>
//    3 //******************************************************************************
//    4 //! 函数名：                 IIC_Start
//    5 //! 功能：                     IIC起始信号
//    6 //! 作者：                      帅帅
//    7 //******************************************************************************

        RSEG `CODE`:CODE:NOROOT(1)
//    8 void IIC_Start(){
IIC_Start:
          CFI Block cfiBlock0 Using cfiCommon0
          CFI Function IIC_Start
          CFI NoCalls
//    9     SDA_OUT;
        BIS.B   #0x1, &0x224
//   10     SDA_H;                    //拉高数据线
        BIS.B   #0x1, &0x222
//   11     SCL_OUT;
        CALLA   #?Subroutine4
//   12     SCL_H;                    //拉高时钟线
//   13     DELAY_US(2);                 //延时
//   14     SDA_L;                    //产生下降沿
??CrossCallReturnLabel_51:
        BIC.B   #0x1, &0x222
//   15     DELAY_US(2);                  //延时
        JMP     ??Subroutine3_0
          CFI EndBlock cfiBlock0
        REQUIRE _A_PBDIR_L
        REQUIRE _A_PBOUT_L
//   16     SCL_L;                    //拉低时钟线
//   17 }
//   18 //******************************************************************************
//   19 //! 函数名：                 IIC_Stop
//   20 //! 功能：                     IIC停止信号
//   21 //! 作者：                      帅帅
//   22 //******************************************************************************

        RSEG `CODE`:CODE:NOROOT(1)
//   23 void IIC_Stop(){
IIC_Stop:
          CFI Block cfiBlock1 Using cfiCommon0
          CFI Function IIC_Stop
          CFI NoCalls
//   24     SDA_OUT;
        BIS.B   #0x1, &0x224
//   25     SDA_L;                    //拉低数据线
        BIC.B   #0x1, &0x222
//   26     SCL_OUT;
        CALLA   #?Subroutine4
//   27     SCL_H;                    //拉高时钟线
//   28     DELAY_US(2);                   //延时
//   29     SDA_H;                    //产生上升沿
??CrossCallReturnLabel_52:
        BIS.B   #0x1, &0x222
//   30     DELAY_US(2);                  //延时
        JMP     ??Subroutine4_0
          CFI EndBlock cfiBlock1
        REQUIRE _A_PBDIR_L
        REQUIRE _A_PBOUT_L
//   31 }
//   32 //******************************************************************************
//   33 //! 函数名：                 IIC_SendACK
//   34 //! 功能：                     IIC发送应答信号
//   35 //! 作者：                      帅帅
//   36 //******************************************************************************

        RSEG `CODE`:CODE:NOROOT(1)
//   37 void IIC_SendACK(uint8_t ack){
IIC_SendACK:
          CFI Block cfiBlock2 Using cfiCommon0
          CFI Function IIC_SendACK
          CFI NoCalls
//   38     SDA_OUT;
        BIS.B   #0x1, &0x224
//   39     SCL_OUT;
        BIS.B   #0x2, &0x224
//   40     if(ack) SDA_H;
        CMP.B   #0x0, R12
        CALLA   #?Subroutine26
//   41     else SDA_L;
//   42 //    SDA = ack;                  //写应答信号
//   43     SCL_H;                    //拉高时钟线
??CrossCallReturnLabel_47:
        CALLA   #?Subroutine3
//   44     DELAY_US(2);                  //延时
//   45     SCL_L;                    //拉低时钟线
//   46     DELAY_US(2);                  //延时
??CrossCallReturnLabel_34:
        JMP     ??Subroutine4_0
          CFI EndBlock cfiBlock2
        REQUIRE _A_PBDIR_L
        REQUIRE _A_PBOUT_L
//   47 }

        RSEG `CODE`:CODE:NOROOT(1)
?Subroutine3:
          CFI Block cfiCond3 Using cfiCommon0
          CFI Function IIC_SendACK
          CFI Conditional ??CrossCallReturnLabel_34
          CFI CFA SP+8
          CFI Block cfiCond4 Using cfiCommon0
          CFI (cfiCond4) Function Single_ReadIIC
          CFI (cfiCond4) Conditional ??CrossCallReturnLabel_35
          CFI (cfiCond4) CFA SP+8
          CFI Block cfiPicker5 Using cfiCommon1
          CFI (cfiPicker5) NoFunction
          CFI (cfiPicker5) Picker
        BIS.B   #0x2, &0x222
          CFI EndBlock cfiCond3
          CFI EndBlock cfiCond4
          CFI EndBlock cfiPicker5
        REQUIRE ??Subroutine3_0
        // Fall through to label ??Subroutine3_0

        RSEG `CODE`:CODE:NOROOT(1)
??Subroutine3_0:
          CFI Block cfiCond6 Using cfiCommon0
          CFI Function IIC_SendACK
          CFI Conditional ??CrossCallReturnLabel_34
          CFI CFA SP+8
          CFI Block cfiCond7 Using cfiCommon0
          CFI (cfiCond7) Function Single_ReadIIC
          CFI (cfiCond7) Conditional ??CrossCallReturnLabel_35
          CFI (cfiCond7) CFA SP+8
          CFI Block cfiBlock8 Using cfiCommon0
          CFI (cfiBlock8) NoFunction
          CFI Block cfiPicker9 Using cfiCommon1
          CFI (cfiPicker9) NoFunction
          CFI (cfiPicker9) Picker
        ////////////// Start of 50 cycles delay.
        MOV.W   #0xf, R15
??Subroutine28_0:
        ADD.W   #0xffff, R15
        JC      ??Subroutine28_0
        ////////////// End of delay code.
        BIC.B   #0x2, &0x222
        RETA
          CFI EndBlock cfiCond6
          CFI EndBlock cfiCond7
          CFI EndBlock cfiBlock8
          CFI EndBlock cfiPicker9
//   48 //******************************************************************************
//   49 //! 函数名：                 IIC_RecvACK
//   50 //! 功能：                     IIC接收应答信号
//   51 //! 作者：                      帅帅
//   52 //******************************************************************************

        RSEG `CODE`:CODE:NOROOT(1)
//   53 uint8_t IIC_RecvACK(){
IIC_RecvACK:
          CFI Block cfiBlock10 Using cfiCommon0
          CFI Function IIC_RecvACK
          CFI NoCalls
//   54     uint8_t cy;
//   55     SCL_OUT;
        CALLA   #?Subroutine25
//   56     SCL_H;                    //拉高时钟线
//   57     SDA_IN;
??CrossCallReturnLabel_45:
        BIC.B   #0x1, &0x224
//   58     DELAY_US(2);                 //延时
        CALLA   #??Subroutine4_0
//   59     if(SDA_DATA)    cy=1;
??CrossCallReturnLabel_53:
        MOV.B   &0x220, R12
//   60     else            cy=0;
//   61 //    cy = SDA;                   //读应答信号
//   62     SCL_L;                    //拉低时钟线
        BIC.B   #0x2, &0x222
//   63     DELAY_US(2);                //延时
        CALLA   #??Subroutine4_0
//   64     SDA_OUT;
??CrossCallReturnLabel_54:
        BIS.B   #0x1, &0x224
//   65     return cy;
        AND.B   #0x1, R12
        RETA
          CFI EndBlock cfiBlock10
        REQUIRE _A_PBDIR_L
        REQUIRE _A_PBOUT_L
        REQUIRE _A_PBIN_L
//   66 }
//   67 //******************************************************************************
//   68 //! 函数名：                 IIC_SendByte
//   69 //! 功能：                     向IIC总线发送一个字节数据
//   70 //! 作者：                      帅帅
//   71 //******************************************************************************

        RSEG `CODE`:CODE:NOROOT(1)
//   72 void IIC_SendByte(uint8_t dat){
IIC_SendByte:
          CFI Block cfiBlock11 Using cfiCommon0
          CFI Function IIC_SendByte
//   73     uint8_t i;
//   74     SDA_OUT;
        BIS.B   #0x1, &0x224
//   75     for (i=0; i<8; i++){          //8位计数器
        MOV.B   #0x0, R14
        MOV.B   R12, R12
//   76         if((dat<<i)&0x80)   SDA_H;
??IIC_SendByte_0:
        MOV.W   R12, R15
        SUB.B   #0x1, R14
        JN      ??IIC_SendByte_3
        RPT     R14
        RLAX.W  R15
??IIC_SendByte_3:
        ADD.B   #0x1, R14
        BIT.B   #0x80, R15
        CALLA   #?Subroutine21
//   77         else                SDA_L;
//   78        // SDA = cy;               //送数据口
//   79         SCL_OUT;
//   80         SCL_H;                //拉高时钟线
//   81         DELAY_US(2);              //延时
??CrossCallReturnLabel_41:
        CALLA   #?Subroutine23
//   82         SCL_L;                //拉低时钟线
??CrossCallReturnLabel_30:
        CALLA   #?Subroutine8
//   83         DELAY_US(2);              //延时
//   84     }
??CrossCallReturnLabel_1:
        ADD.B   #0x1, R14
        CMP.B   #0x8, R14
        JNC     ??IIC_SendByte_0
//   85     IIC_RecvACK();
          CFI TailCall IIC_RecvACK
        BRA     #IIC_RecvACK
          CFI EndBlock cfiBlock11
        REQUIRE _A_PBDIR_L
        REQUIRE _A_PBOUT_L
//   86 }
//   87 
//   88 //******************************************************************************
//   89 //! 函数名：                 IIC_RecvByte
//   90 //! 功能：                     从IIC总线接收一个字节数据
//   91 //! 作者：                      帅帅
//   92 //******************************************************************************

        RSEG `CODE`:CODE:NOROOT(1)
//   93 uint8_t IIC_RecvByte(){
IIC_RecvByte:
          CFI Block cfiBlock12 Using cfiCommon0
          CFI Function IIC_RecvByte
          CFI NoCalls
//   94     uint8_t i;
//   95     uint8_t dat = 0,cy;
        MOV.B   #0x0, R12
//   96     SDA_OUT;
        CALLA   #?Subroutine6
//   97     SCL_OUT;
//   98     SDA_H;                    //使能内部上拉,准备读取数据,
//   99     SDA_IN;
??CrossCallReturnLabel_49:
        BIC.B   #0x1, &0x224
//  100     for (i=0; i<8; i++){         //8位计数器
        MOV.B   #0x8, R14
//  101         dat<<= 1;
//  102         SCL_H;                //拉高时钟线
??IIC_RecvByte_0:
        BIS.B   #0x2, &0x222
//  103         DELAY_US(2);             //延时
        CALLA   #?Subroutine23
//  104         if(SDA_DATA)    cy=1;
//  105         else            cy=0;
//  106         dat |= cy;             //读数据
??CrossCallReturnLabel_31:
        MOV.B   &0x220, R15
        AND.B   #0x1, R15
        RLA.B   R12
        BIS.B   R15, R12
//  107         SCL_L;                //拉低时钟线
        CALLA   #?Subroutine8
//  108         DELAY_US(2);             //延时
//  109     }
??CrossCallReturnLabel_0:
        ADD.B   #0xff, R14
        CMP.B   #0x0, R14
        JNE     ??IIC_RecvByte_0
//  110     SDA_OUT;
        BIS.B   #0x1, &0x224
//  111     return dat;
        RETA
          CFI EndBlock cfiBlock12
        REQUIRE _A_PBDIR_L
        REQUIRE _A_PBOUT_L
        REQUIRE _A_PBIN_L
//  112 }

        RSEG `CODE`:CODE:NOROOT(1)
?Subroutine8:
          CFI Block cfiCond13 Using cfiCommon0
          CFI Function IIC_SendByte
          CFI Conditional ??CrossCallReturnLabel_1
          CFI CFA SP+8
          CFI Block cfiCond14 Using cfiCommon0
          CFI (cfiCond14) Function IIC_RecvByte
          CFI (cfiCond14) Conditional ??CrossCallReturnLabel_0
          CFI (cfiCond14) CFA SP+8
          CFI Block cfiPicker15 Using cfiCommon1
          CFI (cfiPicker15) NoFunction
          CFI (cfiPicker15) Picker
        BIC.B   #0x2, &0x222
          CFI EndBlock cfiCond13
          CFI EndBlock cfiCond14
          CFI EndBlock cfiPicker15
        REQUIRE ?Subroutine23
        // Fall through to label ?Subroutine23

        RSEG `CODE`:CODE:NOROOT(1)
?Subroutine23:
          CFI Block cfiCond16 Using cfiCommon0
          CFI Function IIC_SendByte
          CFI Conditional ??CrossCallReturnLabel_30
          CFI CFA SP+8
          CFI Block cfiCond17 Using cfiCommon0
          CFI (cfiCond17) Function IIC_RecvByte
          CFI (cfiCond17) Conditional ??CrossCallReturnLabel_31
          CFI (cfiCond17) CFA SP+8
          CFI Block cfiCond18 Using cfiCommon0
          CFI (cfiCond18) Function IIC_SendByte
          CFI (cfiCond18) Conditional ??CrossCallReturnLabel_1
          CFI (cfiCond18) CFA SP+8
          CFI Block cfiCond19 Using cfiCommon0
          CFI (cfiCond19) Function IIC_RecvByte
          CFI (cfiCond19) Conditional ??CrossCallReturnLabel_0
          CFI (cfiCond19) CFA SP+8
          CFI Block cfiPicker20 Using cfiCommon1
          CFI (cfiPicker20) NoFunction
          CFI (cfiPicker20) Picker
        ////////////// Start of 50 cycles delay.
        MOV.W   #0xf, R15
??Subroutine23_1:
        ADD.W   #0xffff, R15
        JC      ??Subroutine23_1
        ////////////// End of delay code.
        RETA
          CFI EndBlock cfiCond16
          CFI EndBlock cfiCond17
          CFI EndBlock cfiCond18
          CFI EndBlock cfiCond19
          CFI EndBlock cfiPicker20
//  113 //******************************************************************************
//  114 //! 函数名：                 Single_WriteIIC
//  115 //! 功能：                     向IIC设备写入一个字节数据
//  116 //! 作者：                      帅帅
//  117 //******************************************************************************

        RSEG `CODE`:CODE:NOROOT(1)
//  118 void Single_WriteIIC(uint8_t REG_Address,uint8_t REG_data)
Single_WriteIIC:
          CFI Block cfiBlock21 Using cfiCommon0
          CFI Function Single_WriteIIC
//  119 {
        PUSHM.A #0x2, R11
          CFI R10L Frame(CFA, -12)
          CFI R10H Frame(CFA, -10)
          CFI R11L Frame(CFA, -8)
          CFI R11H Frame(CFA, -6)
          CFI CFA SP+12
        MOV.B   R12, R11
        MOV.B   R13, R10
//  120     IIC_Start();                  //起始信号
        CALLA   #?Subroutine7
??Single_WriteIIC_0:
        CALLA   #?Subroutine2
??CrossCallReturnLabel_36:
        JNC     ??Single_WriteIIC_0
          CFI FunCall IIC_RecvACK
        CALLA   #IIC_RecvACK
//  121     IIC_SendByte(SlaveAddress);   //发送设备地址+写信号
//  122     IIC_SendByte(REG_Address);    //内部寄存器地址
        MOV.B   R11, R12
          CFI FunCall IIC_SendByte
        CALLA   #IIC_SendByte
//  123     IIC_SendByte(REG_data);       //内部寄存器数据
        MOV.B   R10, R12
          CFI FunCall IIC_SendByte
        CALLA   #IIC_SendByte
//  124     IIC_Stop();                   //发送停止信号
          CFI FunCall IIC_Stop
        CALLA   #IIC_Stop
//  125 }
        POPM.A  #0x2, R11
          CFI R10H SameValue
          CFI R11H SameValue
          CFI R10L SameValue
          CFI R11L SameValue
          CFI CFA SP+4
        RETA
          CFI EndBlock cfiBlock21
        REQUIRE _A_PBDIR_L
        REQUIRE _A_PBOUT_L

        RSEG `CODE`:CODE:NOROOT(1)
?Subroutine2:
          CFI Block cfiCond22 Using cfiCommon0
          CFI Function Single_WriteIIC
          CFI Conditional ??CrossCallReturnLabel_36
          CFI R10L Frame(CFA, -12)
          CFI R10H Frame(CFA, -10)
          CFI R11L Frame(CFA, -8)
          CFI R11H Frame(CFA, -6)
          CFI CFA SP+16
          CFI Block cfiCond23 Using cfiCommon0
          CFI (cfiCond23) Function MPU6050_INIT
          CFI (cfiCond23) Conditional ??CrossCallReturnLabel_37
          CFI (cfiCond23) R10L Frame(CFA, -8)
          CFI (cfiCond23) R10H Frame(CFA, -6)
          CFI (cfiCond23) CFA SP+12
          CFI Block cfiCond24 Using cfiCommon0
          CFI (cfiCond24) Function MPU6050_INIT
          CFI (cfiCond24) Conditional ??CrossCallReturnLabel_38
          CFI (cfiCond24) R10L Frame(CFA, -8)
          CFI (cfiCond24) R10H Frame(CFA, -6)
          CFI (cfiCond24) CFA SP+12
          CFI Block cfiPicker25 Using cfiCommon1
          CFI (cfiPicker25) NoFunction
          CFI (cfiPicker25) Picker
        MOV.W   #0xd0, R14
          CFI EndBlock cfiCond22
          CFI EndBlock cfiCond23
          CFI EndBlock cfiCond24
          CFI EndBlock cfiPicker25
        REQUIRE ??Subroutine29_2
        // Fall through to label ??Subroutine29_2

        RSEG `CODE`:CODE:NOROOT(1)
??Subroutine29_2:
          CFI Block cfiCond26 Using cfiCommon0
          CFI Function Single_ReadIIC
          CFI Conditional ??CrossCallReturnLabel_39
          CFI CFA SP+8
          CFI Block cfiCond27 Using cfiCommon0
          CFI (cfiCond27) Function Single_WriteIIC
          CFI (cfiCond27) Conditional ??CrossCallReturnLabel_36
          CFI (cfiCond27) R10L Frame(CFA, -12)
          CFI (cfiCond27) R10H Frame(CFA, -10)
          CFI (cfiCond27) R11L Frame(CFA, -8)
          CFI (cfiCond27) R11H Frame(CFA, -6)
          CFI (cfiCond27) CFA SP+16
          CFI Block cfiCond28 Using cfiCommon0
          CFI (cfiCond28) Function MPU6050_INIT
          CFI (cfiCond28) Conditional ??CrossCallReturnLabel_37
          CFI (cfiCond28) R10L Frame(CFA, -8)
          CFI (cfiCond28) R10H Frame(CFA, -6)
          CFI (cfiCond28) CFA SP+12
          CFI Block cfiCond29 Using cfiCommon0
          CFI (cfiCond29) Function MPU6050_INIT
          CFI (cfiCond29) Conditional ??CrossCallReturnLabel_38
          CFI (cfiCond29) R10L Frame(CFA, -8)
          CFI (cfiCond29) R10H Frame(CFA, -6)
          CFI (cfiCond29) CFA SP+12
          CFI Block cfiPicker30 Using cfiCommon1
          CFI (cfiPicker30) NoFunction
          CFI (cfiPicker30) Picker
        CALLA   #?Subroutine22
??CrossCallReturnLabel_44:
        CALLA   #?Subroutine21
??CrossCallReturnLabel_40:
        ////////////// Start of 50 cycles delay.
        MOV.W   #0xf, R14
??Subroutine29_0:
        ADD.W   #0xffff, R14
        JC      ??Subroutine29_0
        ////////////// End of delay code.
        BIC.B   #0x2, &0x222
        ////////////// Start of 50 cycles delay.
        MOV.W   #0xf, R14
??Subroutine29_1:
        ADD.W   #0xffff, R14
        JC      ??Subroutine29_1
        ////////////// End of delay code.
        ADD.B   #0x1, R15
        CMP.B   #0x8, R15
        RETA
          CFI EndBlock cfiCond26
          CFI EndBlock cfiCond27
          CFI EndBlock cfiCond28
          CFI EndBlock cfiCond29
          CFI EndBlock cfiPicker30
//  126 
//  127 //******************************************************************************
//  128 //! 函数名：                 Single_ReadIIC
//  129 //! 功能：                    从IIC设备读取一个字节数据
//  130 //! 作者：                      帅帅
//  131 //******************************************************************************

        RSEG `CODE`:CODE:NOROOT(1)
//  132 uint8_t  Single_ReadIIC(uint8_t REG_Address)
Single_ReadIIC:
          CFI Block cfiBlock31 Using cfiCommon0
          CFI Function Single_ReadIIC
//  133 {
        MOV.B   R12, R13
//  134  uint8_t REG_data;
//  135  IIC_Start();                   //起始信号
        CALLA   #?Subroutine7
??Single_ReadIIC_0:
        MOV.W   #0xd0, R14
        CALLA   #?Subroutine22
??CrossCallReturnLabel_43:
        CALLA   #?Subroutine21
??CrossCallReturnLabel_42:
        ////////////// Start of 50 cycles delay.
        MOV.W   #0xf, R14
??Single_ReadIIC_8:
        ADD.W   #0xffff, R14
        JC      ??Single_ReadIIC_8
        ////////////// End of delay code.
        BIC.B   #0x2, &0x222
        ////////////// Start of 50 cycles delay.
        MOV.W   #0xf, R14
??Single_ReadIIC_9:
        ADD.W   #0xffff, R14
        JC      ??Single_ReadIIC_9
        ////////////// End of delay code.
        ADD.B   #0x1, R15
        CMP.B   #0x8, R15
        JNC     ??Single_ReadIIC_0
          CFI FunCall IIC_RecvACK
        CALLA   #IIC_RecvACK
//  136  IIC_SendByte(SlaveAddress);    //发送设备地址+写信号
//  137  IIC_SendByte(REG_Address);     //发送存储单元地址〈0开始
        MOV.B   R13, R12
          CFI FunCall IIC_SendByte
        CALLA   #IIC_SendByte
//  138  IIC_Start();                   //起始信号
        CALLA   #?Subroutine7
??Single_ReadIIC_1:
        MOV.W   #0xd1, R14
        CALLA   #??Subroutine29_2
??CrossCallReturnLabel_39:
        JNC     ??Single_ReadIIC_1
          CFI FunCall IIC_RecvACK
        CALLA   #IIC_RecvACK
//  139  IIC_SendByte(SlaveAddress+1);  //发送设备地址+读信号
//  140  REG_data=IIC_RecvByte();       //读出寄存器数据
          CFI FunCall IIC_RecvByte
        CALLA   #IIC_RecvByte
//  141  IIC_SendACK(1);                //接收应答信号
        CALLA   #?Subroutine6
??CrossCallReturnLabel_50:
        CALLA   #?Subroutine3
??CrossCallReturnLabel_35:
        CALLA   #??Subroutine4_0
//  142  IIC_Stop();                    //停止信号
??CrossCallReturnLabel_55:
          CFI TailCall IIC_Stop
        BRA     #IIC_Stop
          CFI EndBlock cfiBlock31
        REQUIRE _A_PBDIR_L
        REQUIRE _A_PBOUT_L
//  143  return REG_data;
//  144 }

        RSEG `CODE`:CODE:NOROOT(1)
?Subroutine22:
          CFI Block cfiCond32 Using cfiCommon0
          CFI Function Single_WriteIIC
          CFI Conditional ??CrossCallReturnLabel_44, ??CrossCallReturnLabel_36
          CFI R10L Frame(CFA, -12)
          CFI R10H Frame(CFA, -10)
          CFI R11L Frame(CFA, -8)
          CFI R11H Frame(CFA, -6)
          CFI CFA SP+20
          CFI Block cfiCond33 Using cfiCommon0
          CFI (cfiCond33) Function MPU6050_INIT
          CFI (cfiCond33) Conditional ??CrossCallReturnLabel_44, ??CrossCallReturnLabel_37
          CFI (cfiCond33) R10L Frame(CFA, -8)
          CFI (cfiCond33) R10H Frame(CFA, -6)
          CFI (cfiCond33) CFA SP+16
          CFI Block cfiCond34 Using cfiCommon0
          CFI (cfiCond34) Function MPU6050_INIT
          CFI (cfiCond34) Conditional ??CrossCallReturnLabel_44, ??CrossCallReturnLabel_38
          CFI (cfiCond34) R10L Frame(CFA, -8)
          CFI (cfiCond34) R10H Frame(CFA, -6)
          CFI (cfiCond34) CFA SP+16
          CFI Block cfiCond35 Using cfiCommon0
          CFI (cfiCond35) Function Single_ReadIIC
          CFI (cfiCond35) Conditional ??CrossCallReturnLabel_44, ??CrossCallReturnLabel_39
          CFI (cfiCond35) CFA SP+12
          CFI Block cfiCond36 Using cfiCommon0
          CFI (cfiCond36) Function Single_ReadIIC
          CFI (cfiCond36) Conditional ??CrossCallReturnLabel_43
          CFI (cfiCond36) CFA SP+8
          CFI Block cfiPicker37 Using cfiCommon1
          CFI (cfiPicker37) NoFunction
          CFI (cfiPicker37) Picker
        SUB.B   #0x1, R15
        JN      ??Single_WriteIIC_1
        RPT     R15
        RLAX.W  R14
??Single_WriteIIC_1:
        ADD.B   #0x1, R15
        BIT.B   #0x80, R14
        RETA
          CFI EndBlock cfiCond32
          CFI EndBlock cfiCond33
          CFI EndBlock cfiCond34
          CFI EndBlock cfiCond35
          CFI EndBlock cfiCond36
          CFI EndBlock cfiPicker37

        RSEG `CODE`:CODE:NOROOT(1)
?Subroutine7:
          CFI Block cfiCond38 Using cfiCommon0
          CFI Function Single_WriteIIC
          CFI Conditional ??Single_WriteIIC_0
          CFI R10L Frame(CFA, -12)
          CFI R10H Frame(CFA, -10)
          CFI R11L Frame(CFA, -8)
          CFI R11H Frame(CFA, -6)
          CFI CFA SP+16
          CFI Block cfiCond39 Using cfiCommon0
          CFI (cfiCond39) Function Single_ReadIIC
          CFI (cfiCond39) Conditional ??Single_ReadIIC_0
          CFI (cfiCond39) CFA SP+8
          CFI Block cfiCond40 Using cfiCommon0
          CFI (cfiCond40) Function Single_ReadIIC
          CFI (cfiCond40) Conditional ??Single_ReadIIC_1
          CFI (cfiCond40) CFA SP+8
          CFI Block cfiCond41 Using cfiCommon0
          CFI (cfiCond41) Function MPU6050_INIT
          CFI (cfiCond41) Conditional ??MPU6050_INIT_0
          CFI (cfiCond41) R10L Frame(CFA, -8)
          CFI (cfiCond41) R10H Frame(CFA, -6)
          CFI (cfiCond41) CFA SP+12
          CFI Block cfiCond42 Using cfiCommon0
          CFI (cfiCond42) Function MPU6050_INIT
          CFI (cfiCond42) Conditional ??MPU6050_INIT_1
          CFI (cfiCond42) R10L Frame(CFA, -8)
          CFI (cfiCond42) R10H Frame(CFA, -6)
          CFI (cfiCond42) CFA SP+12
          CFI Block cfiPicker43 Using cfiCommon1
          CFI (cfiPicker43) NoFunction
          CFI (cfiPicker43) Picker
          CFI (cfiCond38) FunCall Single_WriteIIC IIC_Start
          CFI (cfiCond39) FunCall Single_ReadIIC IIC_Start
          CFI (cfiCond39) FunCall Single_ReadIIC IIC_Start
          CFI (cfiCond41) FunCall MPU6050_INIT IIC_Start
          CFI (cfiCond41) FunCall MPU6050_INIT IIC_Start
        CALLA   #IIC_Start
        BIS.B   #0x1, &0x224
        MOV.B   #0x0, R15
        RETA
          CFI EndBlock cfiCond38
          CFI EndBlock cfiCond39
          CFI EndBlock cfiCond40
          CFI EndBlock cfiCond41
          CFI EndBlock cfiCond42
          CFI EndBlock cfiPicker43

        RSEG `CODE`:CODE:NOROOT(1)
?Subroutine6:
          CFI Block cfiCond44 Using cfiCommon0
          CFI Function IIC_RecvByte
          CFI Conditional ??CrossCallReturnLabel_49
          CFI CFA SP+8
          CFI Block cfiCond45 Using cfiCommon0
          CFI (cfiCond45) Function Single_ReadIIC
          CFI (cfiCond45) Conditional ??CrossCallReturnLabel_50
          CFI (cfiCond45) CFA SP+8
          CFI Block cfiPicker46 Using cfiCommon1
          CFI (cfiPicker46) NoFunction
          CFI (cfiPicker46) Picker
        BIS.B   #0x1, &0x224
        BIS.B   #0x2, &0x224
          CFI EndBlock cfiCond44
          CFI EndBlock cfiCond45
          CFI EndBlock cfiPicker46
        REQUIRE ?Subroutine27
        // Fall through to label ?Subroutine27

        RSEG `CODE`:CODE:NOROOT(1)
?Subroutine27:
          CFI Block cfiCond47 Using cfiCommon0
          CFI Function IIC_RecvByte
          CFI Conditional ??CrossCallReturnLabel_49
          CFI CFA SP+8
          CFI Block cfiCond48 Using cfiCommon0
          CFI (cfiCond48) Function Single_ReadIIC
          CFI (cfiCond48) Conditional ??CrossCallReturnLabel_50
          CFI (cfiCond48) CFA SP+8
          CFI Block cfiCond49 Using cfiCommon0
          CFI (cfiCond49) Function IIC_SendACK
          CFI (cfiCond49) Conditional ??CrossCallReturnLabel_47
          CFI (cfiCond49) CFA SP+8
          CFI Block cfiCond50 Using cfiCommon0
          CFI (cfiCond50) Function Single_WriteIIC
          CFI (cfiCond50) Conditional ??CrossCallReturnLabel_48, ??CrossCallReturnLabel_40, ??CrossCallReturnLabel_36
          CFI (cfiCond50) R10L Frame(CFA, -12)
          CFI (cfiCond50) R10H Frame(CFA, -10)
          CFI (cfiCond50) R11L Frame(CFA, -8)
          CFI (cfiCond50) R11H Frame(CFA, -6)
          CFI (cfiCond50) CFA SP+24
          CFI Block cfiCond51 Using cfiCommon0
          CFI (cfiCond51) Function MPU6050_INIT
          CFI (cfiCond51) Conditional ??CrossCallReturnLabel_48, ??CrossCallReturnLabel_40, ??CrossCallReturnLabel_37
          CFI (cfiCond51) R10L Frame(CFA, -8)
          CFI (cfiCond51) R10H Frame(CFA, -6)
          CFI (cfiCond51) CFA SP+20
          CFI Block cfiCond52 Using cfiCommon0
          CFI (cfiCond52) Function MPU6050_INIT
          CFI (cfiCond52) Conditional ??CrossCallReturnLabel_48, ??CrossCallReturnLabel_40, ??CrossCallReturnLabel_38
          CFI (cfiCond52) R10L Frame(CFA, -8)
          CFI (cfiCond52) R10H Frame(CFA, -6)
          CFI (cfiCond52) CFA SP+20
          CFI Block cfiCond53 Using cfiCommon0
          CFI (cfiCond53) Function Single_ReadIIC
          CFI (cfiCond53) Conditional ??CrossCallReturnLabel_48, ??CrossCallReturnLabel_40, ??CrossCallReturnLabel_39
          CFI (cfiCond53) CFA SP+16
          CFI Block cfiCond54 Using cfiCommon0
          CFI (cfiCond54) Function IIC_SendByte
          CFI (cfiCond54) Conditional ??CrossCallReturnLabel_48, ??CrossCallReturnLabel_41
          CFI (cfiCond54) CFA SP+12
          CFI Block cfiCond55 Using cfiCommon0
          CFI (cfiCond55) Function Single_ReadIIC
          CFI (cfiCond55) Conditional ??CrossCallReturnLabel_48, ??CrossCallReturnLabel_42
          CFI (cfiCond55) CFA SP+12
          CFI Block cfiPicker56 Using cfiCommon1
          CFI (cfiPicker56) NoFunction
          CFI (cfiPicker56) Picker
        BIS.B   #0x1, &0x222
        RETA
          CFI EndBlock cfiCond47
          CFI EndBlock cfiCond48
          CFI EndBlock cfiCond49
          CFI EndBlock cfiCond50
          CFI EndBlock cfiCond51
          CFI EndBlock cfiCond52
          CFI EndBlock cfiCond53
          CFI EndBlock cfiCond54
          CFI EndBlock cfiCond55
          CFI EndBlock cfiPicker56

        RSEG `CODE`:CODE:NOROOT(1)
?Subroutine21:
          CFI Block cfiCond57 Using cfiCommon0
          CFI Function Single_WriteIIC
          CFI Conditional ??CrossCallReturnLabel_40, ??CrossCallReturnLabel_36
          CFI R10L Frame(CFA, -12)
          CFI R10H Frame(CFA, -10)
          CFI R11L Frame(CFA, -8)
          CFI R11H Frame(CFA, -6)
          CFI CFA SP+20
          CFI Block cfiCond58 Using cfiCommon0
          CFI (cfiCond58) Function MPU6050_INIT
          CFI (cfiCond58) Conditional ??CrossCallReturnLabel_40, ??CrossCallReturnLabel_37
          CFI (cfiCond58) R10L Frame(CFA, -8)
          CFI (cfiCond58) R10H Frame(CFA, -6)
          CFI (cfiCond58) CFA SP+16
          CFI Block cfiCond59 Using cfiCommon0
          CFI (cfiCond59) Function MPU6050_INIT
          CFI (cfiCond59) Conditional ??CrossCallReturnLabel_40, ??CrossCallReturnLabel_38
          CFI (cfiCond59) R10L Frame(CFA, -8)
          CFI (cfiCond59) R10H Frame(CFA, -6)
          CFI (cfiCond59) CFA SP+16
          CFI Block cfiCond60 Using cfiCommon0
          CFI (cfiCond60) Function Single_ReadIIC
          CFI (cfiCond60) Conditional ??CrossCallReturnLabel_40, ??CrossCallReturnLabel_39
          CFI (cfiCond60) CFA SP+12
          CFI Block cfiCond61 Using cfiCommon0
          CFI (cfiCond61) Function IIC_SendByte
          CFI (cfiCond61) Conditional ??CrossCallReturnLabel_41
          CFI (cfiCond61) CFA SP+8
          CFI Block cfiCond62 Using cfiCommon0
          CFI (cfiCond62) Function Single_ReadIIC
          CFI (cfiCond62) Conditional ??CrossCallReturnLabel_42
          CFI (cfiCond62) CFA SP+8
          CFI Block cfiPicker63 Using cfiCommon1
          CFI (cfiPicker63) NoFunction
          CFI (cfiPicker63) Picker
        CALLA   #?Subroutine26
??CrossCallReturnLabel_48:
        JMP     ?Subroutine25
          CFI EndBlock cfiCond57
          CFI EndBlock cfiCond58
          CFI EndBlock cfiCond59
          CFI EndBlock cfiCond60
          CFI EndBlock cfiCond61
          CFI EndBlock cfiCond62
          CFI EndBlock cfiPicker63

        RSEG `CODE`:CODE:NOROOT(1)
?Subroutine26:
          CFI Block cfiCond64 Using cfiCommon0
          CFI Function IIC_SendACK
          CFI Conditional ??CrossCallReturnLabel_47
          CFI CFA SP+8
          CFI Block cfiCond65 Using cfiCommon0
          CFI (cfiCond65) Function Single_WriteIIC
          CFI (cfiCond65) Conditional ??CrossCallReturnLabel_48, ??CrossCallReturnLabel_40, ??CrossCallReturnLabel_36
          CFI (cfiCond65) R10L Frame(CFA, -12)
          CFI (cfiCond65) R10H Frame(CFA, -10)
          CFI (cfiCond65) R11L Frame(CFA, -8)
          CFI (cfiCond65) R11H Frame(CFA, -6)
          CFI (cfiCond65) CFA SP+24
          CFI Block cfiCond66 Using cfiCommon0
          CFI (cfiCond66) Function MPU6050_INIT
          CFI (cfiCond66) Conditional ??CrossCallReturnLabel_48, ??CrossCallReturnLabel_40, ??CrossCallReturnLabel_37
          CFI (cfiCond66) R10L Frame(CFA, -8)
          CFI (cfiCond66) R10H Frame(CFA, -6)
          CFI (cfiCond66) CFA SP+20
          CFI Block cfiCond67 Using cfiCommon0
          CFI (cfiCond67) Function MPU6050_INIT
          CFI (cfiCond67) Conditional ??CrossCallReturnLabel_48, ??CrossCallReturnLabel_40, ??CrossCallReturnLabel_38
          CFI (cfiCond67) R10L Frame(CFA, -8)
          CFI (cfiCond67) R10H Frame(CFA, -6)
          CFI (cfiCond67) CFA SP+20
          CFI Block cfiCond68 Using cfiCommon0
          CFI (cfiCond68) Function Single_ReadIIC
          CFI (cfiCond68) Conditional ??CrossCallReturnLabel_48, ??CrossCallReturnLabel_40, ??CrossCallReturnLabel_39
          CFI (cfiCond68) CFA SP+16
          CFI Block cfiCond69 Using cfiCommon0
          CFI (cfiCond69) Function IIC_SendByte
          CFI (cfiCond69) Conditional ??CrossCallReturnLabel_48, ??CrossCallReturnLabel_41
          CFI (cfiCond69) CFA SP+12
          CFI Block cfiCond70 Using cfiCommon0
          CFI (cfiCond70) Function Single_ReadIIC
          CFI (cfiCond70) Conditional ??CrossCallReturnLabel_48, ??CrossCallReturnLabel_42
          CFI (cfiCond70) CFA SP+12
          CFI Block cfiPicker71 Using cfiCommon1
          CFI (cfiPicker71) NoFunction
          CFI (cfiPicker71) Picker
        JEQ     ??IIC_SendACK_0
        JMP     ?Subroutine27
??IIC_SendACK_0:
        BIC.B   #0x1, &0x222
        RETA
          CFI EndBlock cfiCond64
          CFI EndBlock cfiCond65
          CFI EndBlock cfiCond66
          CFI EndBlock cfiCond67
          CFI EndBlock cfiCond68
          CFI EndBlock cfiCond69
          CFI EndBlock cfiCond70
          CFI EndBlock cfiPicker71

        RSEG `CODE`:CODE:NOROOT(1)
?Subroutine25:
          CFI Block cfiCond72 Using cfiCommon0
          CFI Function IIC_RecvACK
          CFI Conditional ??CrossCallReturnLabel_45
          CFI CFA SP+8
          CFI Block cfiCond73 Using cfiCommon0
          CFI (cfiCond73) Function Single_WriteIIC
          CFI (cfiCond73) Conditional ??CrossCallReturnLabel_40, ??CrossCallReturnLabel_36
          CFI (cfiCond73) R10L Frame(CFA, -12)
          CFI (cfiCond73) R10H Frame(CFA, -10)
          CFI (cfiCond73) R11L Frame(CFA, -8)
          CFI (cfiCond73) R11H Frame(CFA, -6)
          CFI (cfiCond73) CFA SP+20
          CFI Block cfiCond74 Using cfiCommon0
          CFI (cfiCond74) Function MPU6050_INIT
          CFI (cfiCond74) Conditional ??CrossCallReturnLabel_40, ??CrossCallReturnLabel_37
          CFI (cfiCond74) R10L Frame(CFA, -8)
          CFI (cfiCond74) R10H Frame(CFA, -6)
          CFI (cfiCond74) CFA SP+16
          CFI Block cfiCond75 Using cfiCommon0
          CFI (cfiCond75) Function MPU6050_INIT
          CFI (cfiCond75) Conditional ??CrossCallReturnLabel_40, ??CrossCallReturnLabel_38
          CFI (cfiCond75) R10L Frame(CFA, -8)
          CFI (cfiCond75) R10H Frame(CFA, -6)
          CFI (cfiCond75) CFA SP+16
          CFI Block cfiCond76 Using cfiCommon0
          CFI (cfiCond76) Function Single_ReadIIC
          CFI (cfiCond76) Conditional ??CrossCallReturnLabel_40, ??CrossCallReturnLabel_39
          CFI (cfiCond76) CFA SP+12
          CFI Block cfiCond77 Using cfiCommon0
          CFI (cfiCond77) Function IIC_SendByte
          CFI (cfiCond77) Conditional ??CrossCallReturnLabel_41
          CFI (cfiCond77) CFA SP+8
          CFI Block cfiCond78 Using cfiCommon0
          CFI (cfiCond78) Function Single_ReadIIC
          CFI (cfiCond78) Conditional ??CrossCallReturnLabel_42
          CFI (cfiCond78) CFA SP+8
          CFI Block cfiCond79 Using cfiCommon0
          CFI (cfiCond79) Function IIC_Start
          CFI (cfiCond79) Conditional ??CrossCallReturnLabel_46, ??CrossCallReturnLabel_51
          CFI (cfiCond79) CFA SP+12
          CFI Block cfiCond80 Using cfiCommon0
          CFI (cfiCond80) Function IIC_Stop
          CFI (cfiCond80) Conditional ??CrossCallReturnLabel_46, ??CrossCallReturnLabel_52
          CFI (cfiCond80) CFA SP+12
          CFI Block cfiPicker81 Using cfiCommon1
          CFI (cfiPicker81) NoFunction
          CFI (cfiPicker81) Picker
        BIS.B   #0x2, &0x224
        BIS.B   #0x2, &0x222
        RETA
          CFI EndBlock cfiCond72
          CFI EndBlock cfiCond73
          CFI EndBlock cfiCond74
          CFI EndBlock cfiCond75
          CFI EndBlock cfiCond76
          CFI EndBlock cfiCond77
          CFI EndBlock cfiCond78
          CFI EndBlock cfiCond79
          CFI EndBlock cfiCond80
          CFI EndBlock cfiPicker81

        RSEG `CODE`:CODE:NOROOT(1)
?Subroutine4:
          CFI Block cfiCond82 Using cfiCommon0
          CFI Function IIC_Start
          CFI Conditional ??CrossCallReturnLabel_51
          CFI CFA SP+8
          CFI Block cfiCond83 Using cfiCommon0
          CFI (cfiCond83) Function IIC_Stop
          CFI (cfiCond83) Conditional ??CrossCallReturnLabel_52
          CFI (cfiCond83) CFA SP+8
          CFI Block cfiPicker84 Using cfiCommon1
          CFI (cfiPicker84) NoFunction
          CFI (cfiPicker84) Picker
        CALLA   #?Subroutine25
??CrossCallReturnLabel_46:
          CFI EndBlock cfiCond82
          CFI EndBlock cfiCond83
          CFI EndBlock cfiPicker84
        REQUIRE ??Subroutine4_0
        // Fall through to label ??Subroutine4_0

        RSEG `CODE`:CODE:REORDER:NOROOT(1)
??Subroutine4_0:
          CFI Block cfiCond85 Using cfiCommon0
          CFI Function IIC_RecvACK
          CFI Conditional ??CrossCallReturnLabel_53
          CFI CFA SP+8
          CFI Block cfiCond86 Using cfiCommon0
          CFI (cfiCond86) Function IIC_RecvACK
          CFI (cfiCond86) Conditional ??CrossCallReturnLabel_54
          CFI (cfiCond86) CFA SP+8
          CFI Block cfiCond87 Using cfiCommon0
          CFI (cfiCond87) Function Single_ReadIIC
          CFI (cfiCond87) Conditional ??CrossCallReturnLabel_55
          CFI (cfiCond87) CFA SP+8
          CFI Block cfiCond88 Using cfiCommon0
          CFI (cfiCond88) Function IIC_Start
          CFI (cfiCond88) Conditional ??CrossCallReturnLabel_51
          CFI (cfiCond88) CFA SP+8
          CFI Block cfiCond89 Using cfiCommon0
          CFI (cfiCond89) Function IIC_Stop
          CFI (cfiCond89) Conditional ??CrossCallReturnLabel_52
          CFI (cfiCond89) CFA SP+8
          CFI Block cfiBlock90 Using cfiCommon0
          CFI (cfiBlock90) NoFunction
          CFI Block cfiPicker91 Using cfiCommon1
          CFI (cfiPicker91) NoFunction
          CFI (cfiPicker91) Picker
        ////////////// Start of 50 cycles delay.
        MOV.W   #0xf, R15
??Subroutine30_0:
        ADD.W   #0xffff, R15
        JC      ??Subroutine30_0
        ////////////// End of delay code.
        RETA
          CFI EndBlock cfiCond85
          CFI EndBlock cfiCond86
          CFI EndBlock cfiCond87
          CFI EndBlock cfiCond88
          CFI EndBlock cfiCond89
          CFI EndBlock cfiBlock90
          CFI EndBlock cfiPicker91
//  145 //******************************************************************************
//  146 //! 函数名：                 MPU6050_INIT
//  147 //! 功能：                     初始化MPU6050
//  148 //! 作者：                      帅帅
//  149 //******************************************************************************

        RSEG `CODE`:CODE:REORDER:NOROOT(1)
//  150 void MPU6050_INIT(){
MPU6050_INIT:
          CFI Block cfiBlock92 Using cfiCommon0
          CFI Function MPU6050_INIT
        PUSHM.A #0x1, R10
          CFI R10L Frame(CFA, -8)
          CFI R10H Frame(CFA, -6)
          CFI CFA SP+8
//  151     Single_WriteIIC(PWR_MGMT_1, 0x00); //解除休眠状态
        MOV.B   #0x0, R13
        MOV.B   #0x6b, R12
          CFI FunCall Single_WriteIIC
        CALLA   #Single_WriteIIC
//  152     Single_WriteIIC(SMPLRT_DIV, 0x07);
        MOV.B   #0x7, R13
        MOV.B   #0x19, R12
          CFI FunCall Single_WriteIIC
        CALLA   #Single_WriteIIC
//  153     Single_WriteIIC(CONFIG, 0x06);
        MOV.B   #0x6, R13
        MOV.B   #0x1a, R12
          CFI FunCall Single_WriteIIC
        CALLA   #Single_WriteIIC
//  154     Single_WriteIIC(GYRO_CONFIG, 0x18);
        CALLA   #?Subroutine7
??MPU6050_INIT_0:
        CALLA   #?Subroutine2
??CrossCallReturnLabel_37:
        JNC     ??MPU6050_INIT_0
          CFI FunCall IIC_RecvACK
        CALLA   #IIC_RecvACK
        MOVA    #IIC_SendByte, R10
        MOV.B   #0x1b, R12
          CFI FunCall IIC_SendByte
        CALLA   R10
        MOV.B   #0x18, R12
          CFI FunCall IIC_SendByte
        CALLA   R10
          CFI FunCall IIC_Stop
        CALLA   #IIC_Stop
//  155     Single_WriteIIC(ACCEL_CONFIG, 0x01);
        CALLA   #?Subroutine7
??MPU6050_INIT_1:
        CALLA   #?Subroutine2
??CrossCallReturnLabel_38:
        JNC     ??MPU6050_INIT_1
          CFI FunCall IIC_RecvACK
        CALLA   #IIC_RecvACK
        MOV.B   #0x1c, R12
          CFI FunCall IIC_SendByte
        CALLA   R10
        MOV.B   #0x1, R12
          CFI FunCall IIC_SendByte
        CALLA   R10
          CFI FunCall IIC_Stop
        CALLA   #IIC_Stop
//  156 }
        POPM.A  #0x1, R10
          CFI R10H SameValue
          CFI R10L SameValue
          CFI CFA SP+4
        RETA
          CFI EndBlock cfiBlock92
        REQUIRE _A_PBDIR_L
        REQUIRE _A_PBOUT_L
//  157 //******************************************************************************
//  158 //! 函数名：                 MPU6050_GET
//  159 //! 功能：                     读取MPU6050
//  160 //! 入口：                     选轴
//  161 //! 作者：                     帅帅
//  162 //******************************************************************************

        RSEG `CODE`:CODE:REORDER:NOROOT(1)
//  163 int MPU6050_GET(uint8_t REG_Address){
MPU6050_GET:
          CFI Block cfiBlock93 Using cfiCommon0
          CFI Function MPU6050_GET
        PUSHM.A #0x2, R11
          CFI R10L Frame(CFA, -12)
          CFI R10H Frame(CFA, -10)
          CFI R11L Frame(CFA, -8)
          CFI R11H Frame(CFA, -6)
          CFI CFA SP+12
        MOV.B   R12, R11
//  164     char H,L;
//  165     H = Single_ReadIIC(REG_Address);
          CFI FunCall Single_ReadIIC
        CALLA   #Single_ReadIIC
//  166     L = Single_ReadIIC(REG_Address+1);
//  167     return ((H<<8)+L)/64;
        MOV.B   R12, R10
        SWPB    R10
        ADD.B   #0x1, R11
        MOV.B   R11, R12
          CFI FunCall Single_ReadIIC
        CALLA   #Single_ReadIIC
        MOV.B   R12, R12
        ADD.W   R10, R12
        MOV.W   #0x40, R14
          CFI FunCall ?DivMod16s
        CALLA   #?DivMod16s
        POPM.A  #0x2, R11
          CFI R10H SameValue
          CFI R11H SameValue
          CFI R10L SameValue
          CFI R11L SameValue
          CFI CFA SP+4
        RETA
//  168 }
          CFI EndBlock cfiBlock93
//  169 
//  170 //卡尔曼参数

        RSEG DATA20_I:DATA:SORT:NOROOT(1)
        REQUIRE ?cstart_init_copy20
//  171 float Q_angle = 0.05; //上次为0.05
Q_angle:
        DS8 4
        REQUIRE `?<Initializer for Q_angle>`

        RSEG DATA20_I:DATA:SORT:NOROOT(1)
        REQUIRE ?cstart_init_copy20
//  172 float Q_gyro  = 0.05;
Q_gyro:
        DS8 4
        REQUIRE `?<Initializer for Q_gyro>`

        RSEG DATA20_I:DATA:SORT:NOROOT(1)
        REQUIRE ?cstart_init_copy20
//  173 float R_angle = 0.06;
R_angle:
        DS8 4
        REQUIRE `?<Initializer for R_angle>`

        RSEG DATA20_I:DATA:SORT:NOROOT(1)
        REQUIRE ?cstart_init_copy20
//  174 float dt      = 0.01;//dt为kalman滤波器采样时间
dt:
        DS8 4
        REQUIRE `?<Initializer for dt>`
//  175 

        RSEG DATA20_I:DATA:SORT:NOROOT(0)
        REQUIRE ?cstart_init_copy20
//  176 char  C_0     = 1;
C_0:
        DS8 1
        REQUIRE `?<Initializer for C_0>`

        RSEG DATA20_Z:DATA:SORT:NOROOT(1)
        REQUIRE ?cstart_init_zero20
//  177 float Q_bias, Angle_err;
Q_bias:
        DS8 4

        RSEG DATA20_Z:DATA:SORT:NOROOT(1)
        REQUIRE ?cstart_init_zero20
Angle_err:
        DS8 4

        RSEG DATA20_Z:DATA:SORT:NOROOT(1)
        REQUIRE ?cstart_init_zero20
//  178 float PCt_0, PCt_1, E;
PCt_0:
        DS8 4

        RSEG DATA20_Z:DATA:SORT:NOROOT(1)
        REQUIRE ?cstart_init_zero20
PCt_1:
        DS8 4

        RSEG DATA20_Z:DATA:SORT:NOROOT(1)
        REQUIRE ?cstart_init_zero20
E:
        DS8 4

        RSEG DATA20_Z:DATA:SORT:NOROOT(1)
        REQUIRE ?cstart_init_zero20
//  179 float K_0, K_1, t_0, t_1;
K_0:
        DS8 4

        RSEG DATA20_Z:DATA:SORT:NOROOT(1)
        REQUIRE ?cstart_init_zero20
K_1:
        DS8 4

        RSEG DATA20_Z:DATA:SORT:NOROOT(1)
        REQUIRE ?cstart_init_zero20
t_0:
        DS8 4

        RSEG DATA20_Z:DATA:SORT:NOROOT(1)
        REQUIRE ?cstart_init_zero20
t_1:
        DS8 4

        RSEG DATA20_Z:DATA:SORT:NOROOT(1)
        REQUIRE ?cstart_init_zero20
//  180 float Pdot[4] ={0,0,0,0};
Pdot:
        DS8 16

        RSEG DATA20_I:DATA:SORT:NOROOT(1)
        REQUIRE ?cstart_init_copy20
//  181 float PP[2][2] = { { 1, 0 },{ 0, 1 } };
PP:
        DS8 16
        REQUIRE `?<Initializer for PP>`

        RSEG DATA20_Z:DATA:SORT:NOROOT(1)
        REQUIRE ?cstart_init_zero20
//  182 float ax,ay,az,Gyro_x,Gyro_y,Gyro_z,Angle_x_temp,Angle_y_temp;
ax:
        DS8 4

        RSEG DATA20_Z:DATA:SORT:NOROOT(1)
        REQUIRE ?cstart_init_zero20
ay:
        DS8 4

        RSEG DATA20_Z:DATA:SORT:NOROOT(1)
        REQUIRE ?cstart_init_zero20
az:
        DS8 4

        RSEG DATA20_Z:DATA:SORT:NOROOT(1)
        REQUIRE ?cstart_init_zero20
Gyro_x:
        DS8 4

        RSEG DATA20_Z:DATA:SORT:NOROOT(1)
        REQUIRE ?cstart_init_zero20
Gyro_y:
        DS8 4

        RSEG DATA20_Z:DATA:SORT:NOROOT(1)
        REQUIRE ?cstart_init_zero20
Gyro_z:
        DS8 4

        RSEG DATA20_Z:DATA:SORT:NOROOT(1)
        REQUIRE ?cstart_init_zero20
Angle_x_temp:
        DS8 4

        RSEG DATA20_Z:DATA:SORT:NOROOT(1)
        REQUIRE ?cstart_init_zero20
Angle_y_temp:
        DS8 4

        RSEG DATA20_Z:DATA:SORT:NOROOT(1)
        REQUIRE ?cstart_init_zero20
//  183 float Angle_X_Final_Kalman,Angle_Y_Final_Kalman;
Angle_X_Final_Kalman:
        DS8 4

        RSEG DATA20_Z:DATA:SORT:NOROOT(1)
        REQUIRE ?cstart_init_zero20
Angle_Y_Final_Kalman:
        DS8 4

        RSEG DATA20_Z:DATA:SORT:NOROOT(1)
        REQUIRE ?cstart_init_zero20
//  184 float Angle_Y_Final_Kalman_last;
Angle_Y_Final_Kalman_last:
        DS8 4
//  185 //卡尔曼滤波函数

        RSEG `CODE`:CODE:NOROOT(1)
//  186 void Kalman_Filter_X(float Accel,float Gyro) //卡尔曼函数
Kalman_Filter_X:
          CFI Block cfiBlock94 Using cfiCommon0
          CFI Function Kalman_Filter_X
          CFI NoCalls
//  187 {
        PUSHM.A #0x8, R11
          CFI R4L Frame(CFA, -36)
          CFI R4H Frame(CFA, -34)
          CFI R5L Frame(CFA, -32)
          CFI R5H Frame(CFA, -30)
          CFI R6L Frame(CFA, -28)
          CFI R6H Frame(CFA, -26)
          CFI R7L Frame(CFA, -24)
          CFI R7H Frame(CFA, -22)
          CFI R8L Frame(CFA, -20)
          CFI R8H Frame(CFA, -18)
          CFI R9L Frame(CFA, -16)
          CFI R9H Frame(CFA, -14)
          CFI R10L Frame(CFA, -12)
          CFI R10H Frame(CFA, -10)
          CFI R11L Frame(CFA, -8)
          CFI R11H Frame(CFA, -6)
          CFI CFA SP+36
        PUSHM.W #0x2, R13
          CFI CFA SP+40
//  188 
//  189     Angle_X_Final_Kalman += (Gyro - Q_bias) * dt; //先验估计
        PUSHM.W #0x2, R15
          CFI CFA SP+44
        CALLA   #?Subroutine9
??CrossCallReturnLabel_2:
        MOVA    #Angle_X_Final_Kalman, R11
          CFI EndBlock cfiBlock94
        REQUIRE ?Subroutine0
        // Fall through to label ?Subroutine0
//  190 
//  191     Pdot[0]=Q_angle - PP[0][1] - PP[1][0]; // Pk-先验估计误差协方差的微分
//  192 
//  193     Pdot[1]= -PP[1][1];
//  194     Pdot[2]= -PP[1][1];
//  195     Pdot[3]= Q_gyro;
//  196 
//  197 
//  198     PP[0][0] += Pdot[0] * dt;   // Pk-先验估计误差协方差微分的积分
//  199     PP[0][1] += Pdot[1] * dt;   // =先验估计误差协方差
//  200     PP[1][0] += Pdot[2] * dt;
//  201     PP[1][1] += Pdot[3] * dt;
//  202 
//  203 
//  204     Angle_err = Accel - Angle_X_Final_Kalman;  //-先验估计
//  205 
//  206     PCt_0 = C_0 * PP[0][0];
//  207     PCt_1 = C_0 * PP[1][0];
//  208 
//  209     E = R_angle + C_0 * PCt_0;
//  210 
//  211     K_0 = PCt_0 / E;
//  212     K_1 = PCt_1 / E;
//  213 
//  214     t_0 = PCt_0;
//  215     t_1 = C_0 * PP[0][1];
//  216 
//  217     PP[0][0] -= K_0 * t_0;       //后验估计误差协方差
//  218     PP[0][1] -= K_0 * t_1;
//  219     PP[1][0] -= K_1 * t_0;
//  220     PP[1][1] -= K_1 * t_1;
//  221 
//  222     Angle_X_Final_Kalman += K_0 * Angle_err;    //后验估计
//  223     Q_bias += K_1 * Angle_err;    //后验估计
//  224 }

        RSEG `CODE`:CODE:NOROOT(1)
?Subroutine0:
          CFI Block cfiBlock95 Using cfiCommon0
          CFI NoFunction
          CFI CFA SP+44
          CFI R4L Frame(CFA, -36)
          CFI R4H Frame(CFA, -34)
          CFI R5L Frame(CFA, -32)
          CFI R5H Frame(CFA, -30)
          CFI R6L Frame(CFA, -28)
          CFI R6H Frame(CFA, -26)
          CFI R7L Frame(CFA, -24)
          CFI R7H Frame(CFA, -22)
          CFI R8L Frame(CFA, -20)
          CFI R8H Frame(CFA, -18)
          CFI R9L Frame(CFA, -16)
          CFI R9H Frame(CFA, -14)
          CFI R10L Frame(CFA, -12)
          CFI R10H Frame(CFA, -10)
          CFI R11L Frame(CFA, -8)
          CFI R11H Frame(CFA, -6)
        MOV.W   R14, R12
        MOV.W   R15, R13
        CALLA   #?Subroutine10
??CrossCallReturnLabel_4:
          CFI FunCall Kalman_Filter_X _Sub32f
          CFI FunCall Kalman_Filter_Y _Sub32f
        CALLA   #_Sub32f
        MOV.W   R8, R14
        MOV.W   R9, R15
        CALLA   #?Subroutine12
??CrossCallReturnLabel_9:
        MOVA    #PP, R10
        MOVX.W  &Q_angle, R12
        MOVX.W  &Q_angle + 2, R13
        CALLA   #?Subroutine15
??CrossCallReturnLabel_13:
          CFI FunCall Kalman_Filter_X _Sub32f
          CFI FunCall Kalman_Filter_Y _Sub32f
        CALLA   #_Sub32f
        CALLA   #?Subroutine16
??CrossCallReturnLabel_16:
          CFI FunCall Kalman_Filter_X _Sub32f
          CFI FunCall Kalman_Filter_Y _Sub32f
        CALLA   #_Sub32f
        MOVA    #Pdot, R15
        MOV.W   R12, 0(R15)
        MOV.W   R13, 0x2(R15)
        MOV.W   0xc(R10), R4
        MOV.W   0xe(R10), R5
        XOR.W   #0x8000, R5
        MOV.W   R4, 0x4(R15)
        MOV.W   R5, 0x6(R15)
        MOV.W   R4, 0x8(R15)
        MOV.W   R5, 0xa(R15)
        MOVX.W  &Q_gyro, R6
        MOVX.W  &Q_gyro + 2, R7
        MOV.W   R6, 0xc(R15)
        MOV.W   R7, 0xe(R15)
        CALLA   #??Subroutine14_0
??CrossCallReturnLabel_57:
        MOV.W   @R10, R14
        MOV.W   0x2(R10), R15
          CFI FunCall Kalman_Filter_X _Add32f
          CFI FunCall Kalman_Filter_Y _Add32f
        CALLA   #_Add32f
        MOV.W   R12, 0(R10)
        MOV.W   R13, 0x2(R10)
        CALLA   #?Subroutine14
??CrossCallReturnLabel_60:
        MOV.W   R12, R4
        MOV.W   R13, R5
        CALLA   #?Subroutine15
??CrossCallReturnLabel_14:
          CFI FunCall Kalman_Filter_X _Add32f
          CFI FunCall Kalman_Filter_Y _Add32f
        CALLA   #_Add32f
        MOV.W   R12, 0x4(R10)
        MOV.W   R13, 0x6(R10)
        MOV.W   R4, R12
        MOV.W   R5, R13
        CALLA   #?Subroutine16
??CrossCallReturnLabel_17:
          CFI FunCall Kalman_Filter_X _Add32f
          CFI FunCall Kalman_Filter_Y _Add32f
        CALLA   #_Add32f
        MOV.W   R12, 0x8(R10)
        MOV.W   R13, 0xa(R10)
        MOV.W   R6, R12
        MOV.W   R7, R13
        CALLA   #??Subroutine14_0
??CrossCallReturnLabel_58:
        MOV.W   0xc(R10), R14
        MOV.W   0xe(R10), R15
          CFI FunCall Kalman_Filter_X _Add32f
          CFI FunCall Kalman_Filter_Y _Add32f
        CALLA   #_Add32f
        MOV.W   R12, 0xc(R10)
        MOV.W   R13, 0xe(R10)
        MOV.W   0x4(SP), R12
        MOV.W   0x6(SP), R13
        MOV.W   @R11, R14
        MOV.W   0x2(R11), R15
          CFI FunCall Kalman_Filter_X _Sub32f
          CFI FunCall Kalman_Filter_Y _Sub32f
        CALLA   #_Sub32f
        MOVX.W  R12, &Angle_err
        MOVX.W  R13, &Angle_err + 2
        MOVX.B  &C_0, R12
        MOV.W   #0x0, R13
          CFI FunCall Kalman_Filter_X _Cast32uto32f
          CFI FunCall Kalman_Filter_Y _Cast32uto32f
        CALLA   #_Cast32uto32f
        MOV.W   R12, R8
        MOV.W   R13, R9
        MOV.W   @R10, R14
        MOV.W   0x2(R10), R15
          CFI FunCall Kalman_Filter_X _Mul32f
          CFI FunCall Kalman_Filter_Y _Mul32f
        CALLA   #_Mul32f
        MOV.W   R12, R6
        MOV.W   R13, R7
        MOVX.W  R12, &PCt_0
        MOVX.W  R13, &PCt_0 + 2
        MOV.W   R8, R12
        MOV.W   R9, R13
        CALLA   #?Subroutine16
??CrossCallReturnLabel_18:
          CFI FunCall Kalman_Filter_X _Mul32f
          CFI FunCall Kalman_Filter_Y _Mul32f
        CALLA   #_Mul32f
        MOVX.W  R12, &PCt_1
        MOVX.W  R13, &PCt_1 + 2
        MOV.W   R8, R12
        MOV.W   R9, R13
        CALLA   #?Subroutine17
??CrossCallReturnLabel_19:
        MOVX.W  &R_angle, R14
        MOVX.W  &R_angle + 2, R15
          CFI FunCall Kalman_Filter_X _Add32f
          CFI FunCall Kalman_Filter_Y _Add32f
        CALLA   #_Add32f
        MOV.W   R12, R4
        MOV.W   R13, R5
        MOVX.W  R12, &E
        MOVX.W  R13, &E + 2
        MOV.W   R6, R12
        MOV.W   R7, R13
        MOV.W   R4, R14
        MOV.W   R5, R15
          CFI FunCall Kalman_Filter_X _Div32f
          CFI FunCall Kalman_Filter_Y _Div32f
        CALLA   #_Div32f
        MOVX.W  R12, &K_0
        MOVX.W  R13, &K_0 + 2
        MOVX.W  &PCt_1, R12
        MOVX.W  &PCt_1 + 2, R13
        MOV.W   R4, R14
        MOV.W   R5, R15
          CFI FunCall Kalman_Filter_X _Div32f
          CFI FunCall Kalman_Filter_Y _Div32f
        CALLA   #_Div32f
        MOV.W   R12, R4
        MOV.W   R13, R5
        MOVX.W  R12, &K_1
        MOVX.W  R13, &K_1 + 2
        MOVX.W  R6, &t_0
        MOVX.W  R7, &t_0 + 2
        MOV.W   R8, R12
        MOV.W   R9, R13
        CALLA   #?Subroutine15
??CrossCallReturnLabel_15:
          CFI FunCall Kalman_Filter_X _Mul32f
          CFI FunCall Kalman_Filter_Y _Mul32f
        CALLA   #_Mul32f
        MOV.W   R12, R8
        MOV.W   R13, R9
        MOVX.W  R12, &t_1
        MOVX.W  R13, &t_1 + 2
        MOV.W   @R10, R12
        MOV.W   0x2(R10), R13
        PUSHM.W #0x2, R13
          CFI CFA SP+48
        CALLA   #?Subroutine18
??CrossCallReturnLabel_22:
        CALLA   #?Subroutine17
??CrossCallReturnLabel_20:
        MOV.W   R12, R14
        MOV.W   R13, R15
        POPM.W  #0x2, R13
          CFI CFA SP+44
          CFI FunCall Kalman_Filter_X _Sub32f
          CFI FunCall Kalman_Filter_Y _Sub32f
        CALLA   #_Sub32f
        MOV.W   R12, 0(R10)
        MOV.W   R13, 0x2(R10)
        MOV.W   0x4(R10), R12
        MOV.W   0x6(R10), R13
        PUSHM.W #0x2, R13
          CFI CFA SP+48
        CALLA   #?Subroutine18
??CrossCallReturnLabel_23:
        CALLA   #??Subroutine14_0
??CrossCallReturnLabel_59:
        MOV.W   R12, R14
        MOV.W   R13, R15
        POPM.W  #0x2, R13
          CFI CFA SP+44
          CFI FunCall Kalman_Filter_X _Sub32f
          CFI FunCall Kalman_Filter_Y _Sub32f
        CALLA   #_Sub32f
        MOV.W   R12, 0x4(R10)
        MOV.W   R13, 0x6(R10)
        MOV.W   0x8(R10), R12
        MOV.W   0xa(R10), R13
        PUSHM.W #0x2, R13
          CFI CFA SP+48
        MOV.W   R4, R12
        MOV.W   R5, R13
        CALLA   #?Subroutine17
??CrossCallReturnLabel_21:
        MOV.W   R12, R14
        MOV.W   R13, R15
        POPM.W  #0x2, R13
          CFI CFA SP+44
          CFI FunCall Kalman_Filter_X _Sub32f
          CFI FunCall Kalman_Filter_Y _Sub32f
        CALLA   #_Sub32f
        MOV.W   R12, 0x8(R10)
        MOV.W   R13, 0xa(R10)
        MOV.W   0xc(R10), R6
        MOV.W   0xe(R10), R7
        CALLA   #?Subroutine14
??CrossCallReturnLabel_61:
        MOV.W   R12, R14
        MOV.W   R13, R15
        MOV.W   R6, R12
        MOV.W   R7, R13
          CFI FunCall Kalman_Filter_X _Sub32f
          CFI FunCall Kalman_Filter_Y _Sub32f
        CALLA   #_Sub32f
        MOV.W   R12, 0xc(R10)
        MOV.W   R13, 0xe(R10)
        CALLA   #?Subroutine18
??CrossCallReturnLabel_24:
        CALLA   #?Subroutine19
??CrossCallReturnLabel_25:
        CALLA   #?Subroutine12
??CrossCallReturnLabel_10:
        MOV.W   R4, R12
        MOV.W   R5, R13
        CALLA   #?Subroutine19
??CrossCallReturnLabel_26:
          CFI FunCall Kalman_Filter_X _Mul32f
          CFI FunCall Kalman_Filter_Y _Mul32f
        CALLA   #_Mul32f
        CALLA   #?Subroutine10
??CrossCallReturnLabel_5:
          CFI FunCall Kalman_Filter_X _Add32f
          CFI FunCall Kalman_Filter_Y _Add32f
        CALLA   #_Add32f
        MOVX.W  R12, &Q_bias
        MOVX.W  R13, &Q_bias + 2
        ADDA    #0x8, SP
          CFI CFA SP+36
        POPM.A  #0x8, R11
          CFI CFA SP+4
          CFI R4L SameValue
          CFI R4H SameValue
          CFI R5L SameValue
          CFI R5H SameValue
          CFI R6L SameValue
          CFI R6H SameValue
          CFI R7L SameValue
          CFI R7H SameValue
          CFI R8L SameValue
          CFI R8H SameValue
          CFI R9L SameValue
          CFI R9H SameValue
          CFI R10L SameValue
          CFI R10H SameValue
          CFI R11L SameValue
          CFI R11H SameValue
        RETA
          CFI EndBlock cfiBlock95

        RSEG `CODE`:CODE:NOROOT(1)
?Subroutine19:
          CFI Block cfiCond96 Using cfiCommon0
          CFI Function Kalman_Filter_X
          CFI Conditional ??CrossCallReturnLabel_25
          CFI R4L Frame(CFA, -36)
          CFI R4H Frame(CFA, -34)
          CFI R5L Frame(CFA, -32)
          CFI R5H Frame(CFA, -30)
          CFI R6L Frame(CFA, -28)
          CFI R6H Frame(CFA, -26)
          CFI R7L Frame(CFA, -24)
          CFI R7H Frame(CFA, -22)
          CFI R8L Frame(CFA, -20)
          CFI R8H Frame(CFA, -18)
          CFI R9L Frame(CFA, -16)
          CFI R9H Frame(CFA, -14)
          CFI R10L Frame(CFA, -12)
          CFI R10H Frame(CFA, -10)
          CFI R11L Frame(CFA, -8)
          CFI R11H Frame(CFA, -6)
          CFI CFA SP+48
          CFI Block cfiCond97 Using cfiCommon0
          CFI (cfiCond97) Function Kalman_Filter_Y
          CFI (cfiCond97) Conditional ??CrossCallReturnLabel_25
          CFI (cfiCond97) R4L Frame(CFA, -36)
          CFI (cfiCond97) R4H Frame(CFA, -34)
          CFI (cfiCond97) R5L Frame(CFA, -32)
          CFI (cfiCond97) R5H Frame(CFA, -30)
          CFI (cfiCond97) R6L Frame(CFA, -28)
          CFI (cfiCond97) R6H Frame(CFA, -26)
          CFI (cfiCond97) R7L Frame(CFA, -24)
          CFI (cfiCond97) R7H Frame(CFA, -22)
          CFI (cfiCond97) R8L Frame(CFA, -20)
          CFI (cfiCond97) R8H Frame(CFA, -18)
          CFI (cfiCond97) R9L Frame(CFA, -16)
          CFI (cfiCond97) R9H Frame(CFA, -14)
          CFI (cfiCond97) R10L Frame(CFA, -12)
          CFI (cfiCond97) R10H Frame(CFA, -10)
          CFI (cfiCond97) R11L Frame(CFA, -8)
          CFI (cfiCond97) R11H Frame(CFA, -6)
          CFI (cfiCond97) CFA SP+48
          CFI Block cfiCond98 Using cfiCommon0
          CFI (cfiCond98) Function Kalman_Filter_X
          CFI (cfiCond98) Conditional ??CrossCallReturnLabel_26
          CFI (cfiCond98) R4L Frame(CFA, -36)
          CFI (cfiCond98) R4H Frame(CFA, -34)
          CFI (cfiCond98) R5L Frame(CFA, -32)
          CFI (cfiCond98) R5H Frame(CFA, -30)
          CFI (cfiCond98) R6L Frame(CFA, -28)
          CFI (cfiCond98) R6H Frame(CFA, -26)
          CFI (cfiCond98) R7L Frame(CFA, -24)
          CFI (cfiCond98) R7H Frame(CFA, -22)
          CFI (cfiCond98) R8L Frame(CFA, -20)
          CFI (cfiCond98) R8H Frame(CFA, -18)
          CFI (cfiCond98) R9L Frame(CFA, -16)
          CFI (cfiCond98) R9H Frame(CFA, -14)
          CFI (cfiCond98) R10L Frame(CFA, -12)
          CFI (cfiCond98) R10H Frame(CFA, -10)
          CFI (cfiCond98) R11L Frame(CFA, -8)
          CFI (cfiCond98) R11H Frame(CFA, -6)
          CFI (cfiCond98) CFA SP+48
          CFI Block cfiCond99 Using cfiCommon0
          CFI (cfiCond99) Function Kalman_Filter_Y
          CFI (cfiCond99) Conditional ??CrossCallReturnLabel_26
          CFI (cfiCond99) R4L Frame(CFA, -36)
          CFI (cfiCond99) R4H Frame(CFA, -34)
          CFI (cfiCond99) R5L Frame(CFA, -32)
          CFI (cfiCond99) R5H Frame(CFA, -30)
          CFI (cfiCond99) R6L Frame(CFA, -28)
          CFI (cfiCond99) R6H Frame(CFA, -26)
          CFI (cfiCond99) R7L Frame(CFA, -24)
          CFI (cfiCond99) R7H Frame(CFA, -22)
          CFI (cfiCond99) R8L Frame(CFA, -20)
          CFI (cfiCond99) R8H Frame(CFA, -18)
          CFI (cfiCond99) R9L Frame(CFA, -16)
          CFI (cfiCond99) R9H Frame(CFA, -14)
          CFI (cfiCond99) R10L Frame(CFA, -12)
          CFI (cfiCond99) R10H Frame(CFA, -10)
          CFI (cfiCond99) R11L Frame(CFA, -8)
          CFI (cfiCond99) R11H Frame(CFA, -6)
          CFI (cfiCond99) CFA SP+48
          CFI Block cfiPicker100 Using cfiCommon1
          CFI (cfiPicker100) NoFunction
          CFI (cfiPicker100) Picker
        MOVX.W  &Angle_err, R14
        MOVX.W  &Angle_err + 2, R15
        RETA
          CFI EndBlock cfiCond96
          CFI EndBlock cfiCond97
          CFI EndBlock cfiCond98
          CFI EndBlock cfiCond99
          CFI EndBlock cfiPicker100

        RSEG `CODE`:CODE:NOROOT(1)
?Subroutine18:
          CFI Block cfiCond101 Using cfiCommon0
          CFI Function Kalman_Filter_X
          CFI Conditional ??CrossCallReturnLabel_22
          CFI R4L Frame(CFA, -36)
          CFI R4H Frame(CFA, -34)
          CFI R5L Frame(CFA, -32)
          CFI R5H Frame(CFA, -30)
          CFI R6L Frame(CFA, -28)
          CFI R6H Frame(CFA, -26)
          CFI R7L Frame(CFA, -24)
          CFI R7H Frame(CFA, -22)
          CFI R8L Frame(CFA, -20)
          CFI R8H Frame(CFA, -18)
          CFI R9L Frame(CFA, -16)
          CFI R9H Frame(CFA, -14)
          CFI R10L Frame(CFA, -12)
          CFI R10H Frame(CFA, -10)
          CFI R11L Frame(CFA, -8)
          CFI R11H Frame(CFA, -6)
          CFI CFA SP+52
          CFI Block cfiCond102 Using cfiCommon0
          CFI (cfiCond102) Function Kalman_Filter_Y
          CFI (cfiCond102) Conditional ??CrossCallReturnLabel_22
          CFI (cfiCond102) R4L Frame(CFA, -36)
          CFI (cfiCond102) R4H Frame(CFA, -34)
          CFI (cfiCond102) R5L Frame(CFA, -32)
          CFI (cfiCond102) R5H Frame(CFA, -30)
          CFI (cfiCond102) R6L Frame(CFA, -28)
          CFI (cfiCond102) R6H Frame(CFA, -26)
          CFI (cfiCond102) R7L Frame(CFA, -24)
          CFI (cfiCond102) R7H Frame(CFA, -22)
          CFI (cfiCond102) R8L Frame(CFA, -20)
          CFI (cfiCond102) R8H Frame(CFA, -18)
          CFI (cfiCond102) R9L Frame(CFA, -16)
          CFI (cfiCond102) R9H Frame(CFA, -14)
          CFI (cfiCond102) R10L Frame(CFA, -12)
          CFI (cfiCond102) R10H Frame(CFA, -10)
          CFI (cfiCond102) R11L Frame(CFA, -8)
          CFI (cfiCond102) R11H Frame(CFA, -6)
          CFI (cfiCond102) CFA SP+52
          CFI Block cfiCond103 Using cfiCommon0
          CFI (cfiCond103) Function Kalman_Filter_X
          CFI (cfiCond103) Conditional ??CrossCallReturnLabel_23
          CFI (cfiCond103) R4L Frame(CFA, -36)
          CFI (cfiCond103) R4H Frame(CFA, -34)
          CFI (cfiCond103) R5L Frame(CFA, -32)
          CFI (cfiCond103) R5H Frame(CFA, -30)
          CFI (cfiCond103) R6L Frame(CFA, -28)
          CFI (cfiCond103) R6H Frame(CFA, -26)
          CFI (cfiCond103) R7L Frame(CFA, -24)
          CFI (cfiCond103) R7H Frame(CFA, -22)
          CFI (cfiCond103) R8L Frame(CFA, -20)
          CFI (cfiCond103) R8H Frame(CFA, -18)
          CFI (cfiCond103) R9L Frame(CFA, -16)
          CFI (cfiCond103) R9H Frame(CFA, -14)
          CFI (cfiCond103) R10L Frame(CFA, -12)
          CFI (cfiCond103) R10H Frame(CFA, -10)
          CFI (cfiCond103) R11L Frame(CFA, -8)
          CFI (cfiCond103) R11H Frame(CFA, -6)
          CFI (cfiCond103) CFA SP+52
          CFI Block cfiCond104 Using cfiCommon0
          CFI (cfiCond104) Function Kalman_Filter_Y
          CFI (cfiCond104) Conditional ??CrossCallReturnLabel_23
          CFI (cfiCond104) R4L Frame(CFA, -36)
          CFI (cfiCond104) R4H Frame(CFA, -34)
          CFI (cfiCond104) R5L Frame(CFA, -32)
          CFI (cfiCond104) R5H Frame(CFA, -30)
          CFI (cfiCond104) R6L Frame(CFA, -28)
          CFI (cfiCond104) R6H Frame(CFA, -26)
          CFI (cfiCond104) R7L Frame(CFA, -24)
          CFI (cfiCond104) R7H Frame(CFA, -22)
          CFI (cfiCond104) R8L Frame(CFA, -20)
          CFI (cfiCond104) R8H Frame(CFA, -18)
          CFI (cfiCond104) R9L Frame(CFA, -16)
          CFI (cfiCond104) R9H Frame(CFA, -14)
          CFI (cfiCond104) R10L Frame(CFA, -12)
          CFI (cfiCond104) R10H Frame(CFA, -10)
          CFI (cfiCond104) R11L Frame(CFA, -8)
          CFI (cfiCond104) R11H Frame(CFA, -6)
          CFI (cfiCond104) CFA SP+52
          CFI Block cfiCond105 Using cfiCommon0
          CFI (cfiCond105) Function Kalman_Filter_X
          CFI (cfiCond105) Conditional ??CrossCallReturnLabel_24
          CFI (cfiCond105) R4L Frame(CFA, -36)
          CFI (cfiCond105) R4H Frame(CFA, -34)
          CFI (cfiCond105) R5L Frame(CFA, -32)
          CFI (cfiCond105) R5H Frame(CFA, -30)
          CFI (cfiCond105) R6L Frame(CFA, -28)
          CFI (cfiCond105) R6H Frame(CFA, -26)
          CFI (cfiCond105) R7L Frame(CFA, -24)
          CFI (cfiCond105) R7H Frame(CFA, -22)
          CFI (cfiCond105) R8L Frame(CFA, -20)
          CFI (cfiCond105) R8H Frame(CFA, -18)
          CFI (cfiCond105) R9L Frame(CFA, -16)
          CFI (cfiCond105) R9H Frame(CFA, -14)
          CFI (cfiCond105) R10L Frame(CFA, -12)
          CFI (cfiCond105) R10H Frame(CFA, -10)
          CFI (cfiCond105) R11L Frame(CFA, -8)
          CFI (cfiCond105) R11H Frame(CFA, -6)
          CFI (cfiCond105) CFA SP+48
          CFI Block cfiCond106 Using cfiCommon0
          CFI (cfiCond106) Function Kalman_Filter_Y
          CFI (cfiCond106) Conditional ??CrossCallReturnLabel_24
          CFI (cfiCond106) R4L Frame(CFA, -36)
          CFI (cfiCond106) R4H Frame(CFA, -34)
          CFI (cfiCond106) R5L Frame(CFA, -32)
          CFI (cfiCond106) R5H Frame(CFA, -30)
          CFI (cfiCond106) R6L Frame(CFA, -28)
          CFI (cfiCond106) R6H Frame(CFA, -26)
          CFI (cfiCond106) R7L Frame(CFA, -24)
          CFI (cfiCond106) R7H Frame(CFA, -22)
          CFI (cfiCond106) R8L Frame(CFA, -20)
          CFI (cfiCond106) R8H Frame(CFA, -18)
          CFI (cfiCond106) R9L Frame(CFA, -16)
          CFI (cfiCond106) R9H Frame(CFA, -14)
          CFI (cfiCond106) R10L Frame(CFA, -12)
          CFI (cfiCond106) R10H Frame(CFA, -10)
          CFI (cfiCond106) R11L Frame(CFA, -8)
          CFI (cfiCond106) R11H Frame(CFA, -6)
          CFI (cfiCond106) CFA SP+48
          CFI Block cfiPicker107 Using cfiCommon1
          CFI (cfiPicker107) NoFunction
          CFI (cfiPicker107) Picker
        MOVX.W  &K_0, R12
        MOVX.W  &K_0 + 2, R13
        RETA
          CFI EndBlock cfiCond101
          CFI EndBlock cfiCond102
          CFI EndBlock cfiCond103
          CFI EndBlock cfiCond104
          CFI EndBlock cfiCond105
          CFI EndBlock cfiCond106
          CFI EndBlock cfiPicker107

        RSEG `CODE`:CODE:NOROOT(1)
?Subroutine17:
          CFI Block cfiCond108 Using cfiCommon0
          CFI Function Kalman_Filter_X
          CFI Conditional ??CrossCallReturnLabel_19
          CFI R4L Frame(CFA, -36)
          CFI R4H Frame(CFA, -34)
          CFI R5L Frame(CFA, -32)
          CFI R5H Frame(CFA, -30)
          CFI R6L Frame(CFA, -28)
          CFI R6H Frame(CFA, -26)
          CFI R7L Frame(CFA, -24)
          CFI R7H Frame(CFA, -22)
          CFI R8L Frame(CFA, -20)
          CFI R8H Frame(CFA, -18)
          CFI R9L Frame(CFA, -16)
          CFI R9H Frame(CFA, -14)
          CFI R10L Frame(CFA, -12)
          CFI R10H Frame(CFA, -10)
          CFI R11L Frame(CFA, -8)
          CFI R11H Frame(CFA, -6)
          CFI CFA SP+48
          CFI Block cfiCond109 Using cfiCommon0
          CFI (cfiCond109) Function Kalman_Filter_Y
          CFI (cfiCond109) Conditional ??CrossCallReturnLabel_19
          CFI (cfiCond109) R4L Frame(CFA, -36)
          CFI (cfiCond109) R4H Frame(CFA, -34)
          CFI (cfiCond109) R5L Frame(CFA, -32)
          CFI (cfiCond109) R5H Frame(CFA, -30)
          CFI (cfiCond109) R6L Frame(CFA, -28)
          CFI (cfiCond109) R6H Frame(CFA, -26)
          CFI (cfiCond109) R7L Frame(CFA, -24)
          CFI (cfiCond109) R7H Frame(CFA, -22)
          CFI (cfiCond109) R8L Frame(CFA, -20)
          CFI (cfiCond109) R8H Frame(CFA, -18)
          CFI (cfiCond109) R9L Frame(CFA, -16)
          CFI (cfiCond109) R9H Frame(CFA, -14)
          CFI (cfiCond109) R10L Frame(CFA, -12)
          CFI (cfiCond109) R10H Frame(CFA, -10)
          CFI (cfiCond109) R11L Frame(CFA, -8)
          CFI (cfiCond109) R11H Frame(CFA, -6)
          CFI (cfiCond109) CFA SP+48
          CFI Block cfiCond110 Using cfiCommon0
          CFI (cfiCond110) Function Kalman_Filter_X
          CFI (cfiCond110) Conditional ??CrossCallReturnLabel_20
          CFI (cfiCond110) R4L Frame(CFA, -36)
          CFI (cfiCond110) R4H Frame(CFA, -34)
          CFI (cfiCond110) R5L Frame(CFA, -32)
          CFI (cfiCond110) R5H Frame(CFA, -30)
          CFI (cfiCond110) R6L Frame(CFA, -28)
          CFI (cfiCond110) R6H Frame(CFA, -26)
          CFI (cfiCond110) R7L Frame(CFA, -24)
          CFI (cfiCond110) R7H Frame(CFA, -22)
          CFI (cfiCond110) R8L Frame(CFA, -20)
          CFI (cfiCond110) R8H Frame(CFA, -18)
          CFI (cfiCond110) R9L Frame(CFA, -16)
          CFI (cfiCond110) R9H Frame(CFA, -14)
          CFI (cfiCond110) R10L Frame(CFA, -12)
          CFI (cfiCond110) R10H Frame(CFA, -10)
          CFI (cfiCond110) R11L Frame(CFA, -8)
          CFI (cfiCond110) R11H Frame(CFA, -6)
          CFI (cfiCond110) CFA SP+52
          CFI Block cfiCond111 Using cfiCommon0
          CFI (cfiCond111) Function Kalman_Filter_Y
          CFI (cfiCond111) Conditional ??CrossCallReturnLabel_20
          CFI (cfiCond111) R4L Frame(CFA, -36)
          CFI (cfiCond111) R4H Frame(CFA, -34)
          CFI (cfiCond111) R5L Frame(CFA, -32)
          CFI (cfiCond111) R5H Frame(CFA, -30)
          CFI (cfiCond111) R6L Frame(CFA, -28)
          CFI (cfiCond111) R6H Frame(CFA, -26)
          CFI (cfiCond111) R7L Frame(CFA, -24)
          CFI (cfiCond111) R7H Frame(CFA, -22)
          CFI (cfiCond111) R8L Frame(CFA, -20)
          CFI (cfiCond111) R8H Frame(CFA, -18)
          CFI (cfiCond111) R9L Frame(CFA, -16)
          CFI (cfiCond111) R9H Frame(CFA, -14)
          CFI (cfiCond111) R10L Frame(CFA, -12)
          CFI (cfiCond111) R10H Frame(CFA, -10)
          CFI (cfiCond111) R11L Frame(CFA, -8)
          CFI (cfiCond111) R11H Frame(CFA, -6)
          CFI (cfiCond111) CFA SP+52
          CFI Block cfiCond112 Using cfiCommon0
          CFI (cfiCond112) Function Kalman_Filter_X
          CFI (cfiCond112) Conditional ??CrossCallReturnLabel_21
          CFI (cfiCond112) R4L Frame(CFA, -36)
          CFI (cfiCond112) R4H Frame(CFA, -34)
          CFI (cfiCond112) R5L Frame(CFA, -32)
          CFI (cfiCond112) R5H Frame(CFA, -30)
          CFI (cfiCond112) R6L Frame(CFA, -28)
          CFI (cfiCond112) R6H Frame(CFA, -26)
          CFI (cfiCond112) R7L Frame(CFA, -24)
          CFI (cfiCond112) R7H Frame(CFA, -22)
          CFI (cfiCond112) R8L Frame(CFA, -20)
          CFI (cfiCond112) R8H Frame(CFA, -18)
          CFI (cfiCond112) R9L Frame(CFA, -16)
          CFI (cfiCond112) R9H Frame(CFA, -14)
          CFI (cfiCond112) R10L Frame(CFA, -12)
          CFI (cfiCond112) R10H Frame(CFA, -10)
          CFI (cfiCond112) R11L Frame(CFA, -8)
          CFI (cfiCond112) R11H Frame(CFA, -6)
          CFI (cfiCond112) CFA SP+52
          CFI Block cfiCond113 Using cfiCommon0
          CFI (cfiCond113) Function Kalman_Filter_Y
          CFI (cfiCond113) Conditional ??CrossCallReturnLabel_21
          CFI (cfiCond113) R4L Frame(CFA, -36)
          CFI (cfiCond113) R4H Frame(CFA, -34)
          CFI (cfiCond113) R5L Frame(CFA, -32)
          CFI (cfiCond113) R5H Frame(CFA, -30)
          CFI (cfiCond113) R6L Frame(CFA, -28)
          CFI (cfiCond113) R6H Frame(CFA, -26)
          CFI (cfiCond113) R7L Frame(CFA, -24)
          CFI (cfiCond113) R7H Frame(CFA, -22)
          CFI (cfiCond113) R8L Frame(CFA, -20)
          CFI (cfiCond113) R8H Frame(CFA, -18)
          CFI (cfiCond113) R9L Frame(CFA, -16)
          CFI (cfiCond113) R9H Frame(CFA, -14)
          CFI (cfiCond113) R10L Frame(CFA, -12)
          CFI (cfiCond113) R10H Frame(CFA, -10)
          CFI (cfiCond113) R11L Frame(CFA, -8)
          CFI (cfiCond113) R11H Frame(CFA, -6)
          CFI (cfiCond113) CFA SP+52
          CFI Block cfiPicker114 Using cfiCommon1
          CFI (cfiPicker114) NoFunction
          CFI (cfiPicker114) Picker
        MOV.W   R6, R14
        MOV.W   R7, R15
          CFI (cfiCond108) TailCall Kalman_Filter_X _Mul32f
          CFI (cfiCond109) TailCall Kalman_Filter_Y _Mul32f
          CFI (cfiCond108) TailCall Kalman_Filter_X _Mul32f
          CFI (cfiCond109) TailCall Kalman_Filter_Y _Mul32f
          CFI (cfiCond108) TailCall Kalman_Filter_X _Mul32f
          CFI (cfiCond109) TailCall Kalman_Filter_Y _Mul32f
        BRA     #_Mul32f
          CFI EndBlock cfiCond108
          CFI EndBlock cfiCond109
          CFI EndBlock cfiCond110
          CFI EndBlock cfiCond111
          CFI EndBlock cfiCond112
          CFI EndBlock cfiCond113
          CFI EndBlock cfiPicker114

        RSEG `CODE`:CODE:NOROOT(1)
?Subroutine16:
          CFI Block cfiCond115 Using cfiCommon0
          CFI Function Kalman_Filter_X
          CFI Conditional ??CrossCallReturnLabel_16
          CFI R4L Frame(CFA, -36)
          CFI R4H Frame(CFA, -34)
          CFI R5L Frame(CFA, -32)
          CFI R5H Frame(CFA, -30)
          CFI R6L Frame(CFA, -28)
          CFI R6H Frame(CFA, -26)
          CFI R7L Frame(CFA, -24)
          CFI R7H Frame(CFA, -22)
          CFI R8L Frame(CFA, -20)
          CFI R8H Frame(CFA, -18)
          CFI R9L Frame(CFA, -16)
          CFI R9H Frame(CFA, -14)
          CFI R10L Frame(CFA, -12)
          CFI R10H Frame(CFA, -10)
          CFI R11L Frame(CFA, -8)
          CFI R11H Frame(CFA, -6)
          CFI CFA SP+48
          CFI Block cfiCond116 Using cfiCommon0
          CFI (cfiCond116) Function Kalman_Filter_Y
          CFI (cfiCond116) Conditional ??CrossCallReturnLabel_16
          CFI (cfiCond116) R4L Frame(CFA, -36)
          CFI (cfiCond116) R4H Frame(CFA, -34)
          CFI (cfiCond116) R5L Frame(CFA, -32)
          CFI (cfiCond116) R5H Frame(CFA, -30)
          CFI (cfiCond116) R6L Frame(CFA, -28)
          CFI (cfiCond116) R6H Frame(CFA, -26)
          CFI (cfiCond116) R7L Frame(CFA, -24)
          CFI (cfiCond116) R7H Frame(CFA, -22)
          CFI (cfiCond116) R8L Frame(CFA, -20)
          CFI (cfiCond116) R8H Frame(CFA, -18)
          CFI (cfiCond116) R9L Frame(CFA, -16)
          CFI (cfiCond116) R9H Frame(CFA, -14)
          CFI (cfiCond116) R10L Frame(CFA, -12)
          CFI (cfiCond116) R10H Frame(CFA, -10)
          CFI (cfiCond116) R11L Frame(CFA, -8)
          CFI (cfiCond116) R11H Frame(CFA, -6)
          CFI (cfiCond116) CFA SP+48
          CFI Block cfiCond117 Using cfiCommon0
          CFI (cfiCond117) Function Kalman_Filter_X
          CFI (cfiCond117) Conditional ??CrossCallReturnLabel_17
          CFI (cfiCond117) R4L Frame(CFA, -36)
          CFI (cfiCond117) R4H Frame(CFA, -34)
          CFI (cfiCond117) R5L Frame(CFA, -32)
          CFI (cfiCond117) R5H Frame(CFA, -30)
          CFI (cfiCond117) R6L Frame(CFA, -28)
          CFI (cfiCond117) R6H Frame(CFA, -26)
          CFI (cfiCond117) R7L Frame(CFA, -24)
          CFI (cfiCond117) R7H Frame(CFA, -22)
          CFI (cfiCond117) R8L Frame(CFA, -20)
          CFI (cfiCond117) R8H Frame(CFA, -18)
          CFI (cfiCond117) R9L Frame(CFA, -16)
          CFI (cfiCond117) R9H Frame(CFA, -14)
          CFI (cfiCond117) R10L Frame(CFA, -12)
          CFI (cfiCond117) R10H Frame(CFA, -10)
          CFI (cfiCond117) R11L Frame(CFA, -8)
          CFI (cfiCond117) R11H Frame(CFA, -6)
          CFI (cfiCond117) CFA SP+48
          CFI Block cfiCond118 Using cfiCommon0
          CFI (cfiCond118) Function Kalman_Filter_Y
          CFI (cfiCond118) Conditional ??CrossCallReturnLabel_17
          CFI (cfiCond118) R4L Frame(CFA, -36)
          CFI (cfiCond118) R4H Frame(CFA, -34)
          CFI (cfiCond118) R5L Frame(CFA, -32)
          CFI (cfiCond118) R5H Frame(CFA, -30)
          CFI (cfiCond118) R6L Frame(CFA, -28)
          CFI (cfiCond118) R6H Frame(CFA, -26)
          CFI (cfiCond118) R7L Frame(CFA, -24)
          CFI (cfiCond118) R7H Frame(CFA, -22)
          CFI (cfiCond118) R8L Frame(CFA, -20)
          CFI (cfiCond118) R8H Frame(CFA, -18)
          CFI (cfiCond118) R9L Frame(CFA, -16)
          CFI (cfiCond118) R9H Frame(CFA, -14)
          CFI (cfiCond118) R10L Frame(CFA, -12)
          CFI (cfiCond118) R10H Frame(CFA, -10)
          CFI (cfiCond118) R11L Frame(CFA, -8)
          CFI (cfiCond118) R11H Frame(CFA, -6)
          CFI (cfiCond118) CFA SP+48
          CFI Block cfiCond119 Using cfiCommon0
          CFI (cfiCond119) Function Kalman_Filter_X
          CFI (cfiCond119) Conditional ??CrossCallReturnLabel_18
          CFI (cfiCond119) R4L Frame(CFA, -36)
          CFI (cfiCond119) R4H Frame(CFA, -34)
          CFI (cfiCond119) R5L Frame(CFA, -32)
          CFI (cfiCond119) R5H Frame(CFA, -30)
          CFI (cfiCond119) R6L Frame(CFA, -28)
          CFI (cfiCond119) R6H Frame(CFA, -26)
          CFI (cfiCond119) R7L Frame(CFA, -24)
          CFI (cfiCond119) R7H Frame(CFA, -22)
          CFI (cfiCond119) R8L Frame(CFA, -20)
          CFI (cfiCond119) R8H Frame(CFA, -18)
          CFI (cfiCond119) R9L Frame(CFA, -16)
          CFI (cfiCond119) R9H Frame(CFA, -14)
          CFI (cfiCond119) R10L Frame(CFA, -12)
          CFI (cfiCond119) R10H Frame(CFA, -10)
          CFI (cfiCond119) R11L Frame(CFA, -8)
          CFI (cfiCond119) R11H Frame(CFA, -6)
          CFI (cfiCond119) CFA SP+48
          CFI Block cfiCond120 Using cfiCommon0
          CFI (cfiCond120) Function Kalman_Filter_Y
          CFI (cfiCond120) Conditional ??CrossCallReturnLabel_18
          CFI (cfiCond120) R4L Frame(CFA, -36)
          CFI (cfiCond120) R4H Frame(CFA, -34)
          CFI (cfiCond120) R5L Frame(CFA, -32)
          CFI (cfiCond120) R5H Frame(CFA, -30)
          CFI (cfiCond120) R6L Frame(CFA, -28)
          CFI (cfiCond120) R6H Frame(CFA, -26)
          CFI (cfiCond120) R7L Frame(CFA, -24)
          CFI (cfiCond120) R7H Frame(CFA, -22)
          CFI (cfiCond120) R8L Frame(CFA, -20)
          CFI (cfiCond120) R8H Frame(CFA, -18)
          CFI (cfiCond120) R9L Frame(CFA, -16)
          CFI (cfiCond120) R9H Frame(CFA, -14)
          CFI (cfiCond120) R10L Frame(CFA, -12)
          CFI (cfiCond120) R10H Frame(CFA, -10)
          CFI (cfiCond120) R11L Frame(CFA, -8)
          CFI (cfiCond120) R11H Frame(CFA, -6)
          CFI (cfiCond120) CFA SP+48
          CFI Block cfiPicker121 Using cfiCommon1
          CFI (cfiPicker121) NoFunction
          CFI (cfiPicker121) Picker
        MOV.W   0x8(R10), R14
        MOV.W   0xa(R10), R15
        RETA
          CFI EndBlock cfiCond115
          CFI EndBlock cfiCond116
          CFI EndBlock cfiCond117
          CFI EndBlock cfiCond118
          CFI EndBlock cfiCond119
          CFI EndBlock cfiCond120
          CFI EndBlock cfiPicker121

        RSEG `CODE`:CODE:NOROOT(1)
?Subroutine15:
          CFI Block cfiCond122 Using cfiCommon0
          CFI Function Kalman_Filter_X
          CFI Conditional ??CrossCallReturnLabel_13
          CFI R4L Frame(CFA, -36)
          CFI R4H Frame(CFA, -34)
          CFI R5L Frame(CFA, -32)
          CFI R5H Frame(CFA, -30)
          CFI R6L Frame(CFA, -28)
          CFI R6H Frame(CFA, -26)
          CFI R7L Frame(CFA, -24)
          CFI R7H Frame(CFA, -22)
          CFI R8L Frame(CFA, -20)
          CFI R8H Frame(CFA, -18)
          CFI R9L Frame(CFA, -16)
          CFI R9H Frame(CFA, -14)
          CFI R10L Frame(CFA, -12)
          CFI R10H Frame(CFA, -10)
          CFI R11L Frame(CFA, -8)
          CFI R11H Frame(CFA, -6)
          CFI CFA SP+48
          CFI Block cfiCond123 Using cfiCommon0
          CFI (cfiCond123) Function Kalman_Filter_Y
          CFI (cfiCond123) Conditional ??CrossCallReturnLabel_13
          CFI (cfiCond123) R4L Frame(CFA, -36)
          CFI (cfiCond123) R4H Frame(CFA, -34)
          CFI (cfiCond123) R5L Frame(CFA, -32)
          CFI (cfiCond123) R5H Frame(CFA, -30)
          CFI (cfiCond123) R6L Frame(CFA, -28)
          CFI (cfiCond123) R6H Frame(CFA, -26)
          CFI (cfiCond123) R7L Frame(CFA, -24)
          CFI (cfiCond123) R7H Frame(CFA, -22)
          CFI (cfiCond123) R8L Frame(CFA, -20)
          CFI (cfiCond123) R8H Frame(CFA, -18)
          CFI (cfiCond123) R9L Frame(CFA, -16)
          CFI (cfiCond123) R9H Frame(CFA, -14)
          CFI (cfiCond123) R10L Frame(CFA, -12)
          CFI (cfiCond123) R10H Frame(CFA, -10)
          CFI (cfiCond123) R11L Frame(CFA, -8)
          CFI (cfiCond123) R11H Frame(CFA, -6)
          CFI (cfiCond123) CFA SP+48
          CFI Block cfiCond124 Using cfiCommon0
          CFI (cfiCond124) Function Kalman_Filter_X
          CFI (cfiCond124) Conditional ??CrossCallReturnLabel_14
          CFI (cfiCond124) R4L Frame(CFA, -36)
          CFI (cfiCond124) R4H Frame(CFA, -34)
          CFI (cfiCond124) R5L Frame(CFA, -32)
          CFI (cfiCond124) R5H Frame(CFA, -30)
          CFI (cfiCond124) R6L Frame(CFA, -28)
          CFI (cfiCond124) R6H Frame(CFA, -26)
          CFI (cfiCond124) R7L Frame(CFA, -24)
          CFI (cfiCond124) R7H Frame(CFA, -22)
          CFI (cfiCond124) R8L Frame(CFA, -20)
          CFI (cfiCond124) R8H Frame(CFA, -18)
          CFI (cfiCond124) R9L Frame(CFA, -16)
          CFI (cfiCond124) R9H Frame(CFA, -14)
          CFI (cfiCond124) R10L Frame(CFA, -12)
          CFI (cfiCond124) R10H Frame(CFA, -10)
          CFI (cfiCond124) R11L Frame(CFA, -8)
          CFI (cfiCond124) R11H Frame(CFA, -6)
          CFI (cfiCond124) CFA SP+48
          CFI Block cfiCond125 Using cfiCommon0
          CFI (cfiCond125) Function Kalman_Filter_Y
          CFI (cfiCond125) Conditional ??CrossCallReturnLabel_14
          CFI (cfiCond125) R4L Frame(CFA, -36)
          CFI (cfiCond125) R4H Frame(CFA, -34)
          CFI (cfiCond125) R5L Frame(CFA, -32)
          CFI (cfiCond125) R5H Frame(CFA, -30)
          CFI (cfiCond125) R6L Frame(CFA, -28)
          CFI (cfiCond125) R6H Frame(CFA, -26)
          CFI (cfiCond125) R7L Frame(CFA, -24)
          CFI (cfiCond125) R7H Frame(CFA, -22)
          CFI (cfiCond125) R8L Frame(CFA, -20)
          CFI (cfiCond125) R8H Frame(CFA, -18)
          CFI (cfiCond125) R9L Frame(CFA, -16)
          CFI (cfiCond125) R9H Frame(CFA, -14)
          CFI (cfiCond125) R10L Frame(CFA, -12)
          CFI (cfiCond125) R10H Frame(CFA, -10)
          CFI (cfiCond125) R11L Frame(CFA, -8)
          CFI (cfiCond125) R11H Frame(CFA, -6)
          CFI (cfiCond125) CFA SP+48
          CFI Block cfiCond126 Using cfiCommon0
          CFI (cfiCond126) Function Kalman_Filter_X
          CFI (cfiCond126) Conditional ??CrossCallReturnLabel_15
          CFI (cfiCond126) R4L Frame(CFA, -36)
          CFI (cfiCond126) R4H Frame(CFA, -34)
          CFI (cfiCond126) R5L Frame(CFA, -32)
          CFI (cfiCond126) R5H Frame(CFA, -30)
          CFI (cfiCond126) R6L Frame(CFA, -28)
          CFI (cfiCond126) R6H Frame(CFA, -26)
          CFI (cfiCond126) R7L Frame(CFA, -24)
          CFI (cfiCond126) R7H Frame(CFA, -22)
          CFI (cfiCond126) R8L Frame(CFA, -20)
          CFI (cfiCond126) R8H Frame(CFA, -18)
          CFI (cfiCond126) R9L Frame(CFA, -16)
          CFI (cfiCond126) R9H Frame(CFA, -14)
          CFI (cfiCond126) R10L Frame(CFA, -12)
          CFI (cfiCond126) R10H Frame(CFA, -10)
          CFI (cfiCond126) R11L Frame(CFA, -8)
          CFI (cfiCond126) R11H Frame(CFA, -6)
          CFI (cfiCond126) CFA SP+48
          CFI Block cfiCond127 Using cfiCommon0
          CFI (cfiCond127) Function Kalman_Filter_Y
          CFI (cfiCond127) Conditional ??CrossCallReturnLabel_15
          CFI (cfiCond127) R4L Frame(CFA, -36)
          CFI (cfiCond127) R4H Frame(CFA, -34)
          CFI (cfiCond127) R5L Frame(CFA, -32)
          CFI (cfiCond127) R5H Frame(CFA, -30)
          CFI (cfiCond127) R6L Frame(CFA, -28)
          CFI (cfiCond127) R6H Frame(CFA, -26)
          CFI (cfiCond127) R7L Frame(CFA, -24)
          CFI (cfiCond127) R7H Frame(CFA, -22)
          CFI (cfiCond127) R8L Frame(CFA, -20)
          CFI (cfiCond127) R8H Frame(CFA, -18)
          CFI (cfiCond127) R9L Frame(CFA, -16)
          CFI (cfiCond127) R9H Frame(CFA, -14)
          CFI (cfiCond127) R10L Frame(CFA, -12)
          CFI (cfiCond127) R10H Frame(CFA, -10)
          CFI (cfiCond127) R11L Frame(CFA, -8)
          CFI (cfiCond127) R11H Frame(CFA, -6)
          CFI (cfiCond127) CFA SP+48
          CFI Block cfiPicker128 Using cfiCommon1
          CFI (cfiPicker128) NoFunction
          CFI (cfiPicker128) Picker
        MOV.W   0x4(R10), R14
        MOV.W   0x6(R10), R15
        RETA
          CFI EndBlock cfiCond122
          CFI EndBlock cfiCond123
          CFI EndBlock cfiCond124
          CFI EndBlock cfiCond125
          CFI EndBlock cfiCond126
          CFI EndBlock cfiCond127
          CFI EndBlock cfiPicker128

        RSEG `CODE`:CODE:NOROOT(1)
?Subroutine12:
          CFI Block cfiCond129 Using cfiCommon0
          CFI Function Kalman_Filter_X
          CFI Conditional ??CrossCallReturnLabel_9
          CFI R4L Frame(CFA, -36)
          CFI R4H Frame(CFA, -34)
          CFI R5L Frame(CFA, -32)
          CFI R5H Frame(CFA, -30)
          CFI R6L Frame(CFA, -28)
          CFI R6H Frame(CFA, -26)
          CFI R7L Frame(CFA, -24)
          CFI R7H Frame(CFA, -22)
          CFI R8L Frame(CFA, -20)
          CFI R8H Frame(CFA, -18)
          CFI R9L Frame(CFA, -16)
          CFI R9H Frame(CFA, -14)
          CFI R10L Frame(CFA, -12)
          CFI R10H Frame(CFA, -10)
          CFI R11L Frame(CFA, -8)
          CFI R11H Frame(CFA, -6)
          CFI CFA SP+48
          CFI Block cfiCond130 Using cfiCommon0
          CFI (cfiCond130) Function Kalman_Filter_Y
          CFI (cfiCond130) Conditional ??CrossCallReturnLabel_9
          CFI (cfiCond130) R4L Frame(CFA, -36)
          CFI (cfiCond130) R4H Frame(CFA, -34)
          CFI (cfiCond130) R5L Frame(CFA, -32)
          CFI (cfiCond130) R5H Frame(CFA, -30)
          CFI (cfiCond130) R6L Frame(CFA, -28)
          CFI (cfiCond130) R6H Frame(CFA, -26)
          CFI (cfiCond130) R7L Frame(CFA, -24)
          CFI (cfiCond130) R7H Frame(CFA, -22)
          CFI (cfiCond130) R8L Frame(CFA, -20)
          CFI (cfiCond130) R8H Frame(CFA, -18)
          CFI (cfiCond130) R9L Frame(CFA, -16)
          CFI (cfiCond130) R9H Frame(CFA, -14)
          CFI (cfiCond130) R10L Frame(CFA, -12)
          CFI (cfiCond130) R10H Frame(CFA, -10)
          CFI (cfiCond130) R11L Frame(CFA, -8)
          CFI (cfiCond130) R11H Frame(CFA, -6)
          CFI (cfiCond130) CFA SP+48
          CFI Block cfiCond131 Using cfiCommon0
          CFI (cfiCond131) Function Kalman_Filter_X
          CFI (cfiCond131) Conditional ??CrossCallReturnLabel_10
          CFI (cfiCond131) R4L Frame(CFA, -36)
          CFI (cfiCond131) R4H Frame(CFA, -34)
          CFI (cfiCond131) R5L Frame(CFA, -32)
          CFI (cfiCond131) R5H Frame(CFA, -30)
          CFI (cfiCond131) R6L Frame(CFA, -28)
          CFI (cfiCond131) R6H Frame(CFA, -26)
          CFI (cfiCond131) R7L Frame(CFA, -24)
          CFI (cfiCond131) R7H Frame(CFA, -22)
          CFI (cfiCond131) R8L Frame(CFA, -20)
          CFI (cfiCond131) R8H Frame(CFA, -18)
          CFI (cfiCond131) R9L Frame(CFA, -16)
          CFI (cfiCond131) R9H Frame(CFA, -14)
          CFI (cfiCond131) R10L Frame(CFA, -12)
          CFI (cfiCond131) R10H Frame(CFA, -10)
          CFI (cfiCond131) R11L Frame(CFA, -8)
          CFI (cfiCond131) R11H Frame(CFA, -6)
          CFI (cfiCond131) CFA SP+48
          CFI Block cfiCond132 Using cfiCommon0
          CFI (cfiCond132) Function Kalman_Filter_Y
          CFI (cfiCond132) Conditional ??CrossCallReturnLabel_10
          CFI (cfiCond132) R4L Frame(CFA, -36)
          CFI (cfiCond132) R4H Frame(CFA, -34)
          CFI (cfiCond132) R5L Frame(CFA, -32)
          CFI (cfiCond132) R5H Frame(CFA, -30)
          CFI (cfiCond132) R6L Frame(CFA, -28)
          CFI (cfiCond132) R6H Frame(CFA, -26)
          CFI (cfiCond132) R7L Frame(CFA, -24)
          CFI (cfiCond132) R7H Frame(CFA, -22)
          CFI (cfiCond132) R8L Frame(CFA, -20)
          CFI (cfiCond132) R8H Frame(CFA, -18)
          CFI (cfiCond132) R9L Frame(CFA, -16)
          CFI (cfiCond132) R9H Frame(CFA, -14)
          CFI (cfiCond132) R10L Frame(CFA, -12)
          CFI (cfiCond132) R10H Frame(CFA, -10)
          CFI (cfiCond132) R11L Frame(CFA, -8)
          CFI (cfiCond132) R11H Frame(CFA, -6)
          CFI (cfiCond132) CFA SP+48
          CFI Block cfiPicker133 Using cfiCommon1
          CFI (cfiPicker133) NoFunction
          CFI (cfiPicker133) Picker
          CFI (cfiCond129) FunCall Kalman_Filter_X _Mul32f
          CFI (cfiCond130) FunCall Kalman_Filter_Y _Mul32f
          CFI (cfiCond129) FunCall Kalman_Filter_X _Mul32f
          CFI (cfiCond130) FunCall Kalman_Filter_Y _Mul32f
        CALLA   #_Mul32f
        MOV.W   @R11, R14
        MOV.W   0x2(R11), R15
          CFI (cfiCond129) FunCall Kalman_Filter_X _Add32f
          CFI (cfiCond130) FunCall Kalman_Filter_Y _Add32f
          CFI (cfiCond129) FunCall Kalman_Filter_X _Add32f
          CFI (cfiCond130) FunCall Kalman_Filter_Y _Add32f
        CALLA   #_Add32f
        MOV.W   R12, 0(R11)
        MOV.W   R13, 0x2(R11)
        RETA
          CFI EndBlock cfiCond129
          CFI EndBlock cfiCond130
          CFI EndBlock cfiCond131
          CFI EndBlock cfiCond132
          CFI EndBlock cfiPicker133

        RSEG `CODE`:CODE:NOROOT(1)
?Subroutine10:
          CFI Block cfiCond134 Using cfiCommon0
          CFI Function Kalman_Filter_X
          CFI Conditional ??CrossCallReturnLabel_4
          CFI R4L Frame(CFA, -36)
          CFI R4H Frame(CFA, -34)
          CFI R5L Frame(CFA, -32)
          CFI R5H Frame(CFA, -30)
          CFI R6L Frame(CFA, -28)
          CFI R6H Frame(CFA, -26)
          CFI R7L Frame(CFA, -24)
          CFI R7H Frame(CFA, -22)
          CFI R8L Frame(CFA, -20)
          CFI R8H Frame(CFA, -18)
          CFI R9L Frame(CFA, -16)
          CFI R9H Frame(CFA, -14)
          CFI R10L Frame(CFA, -12)
          CFI R10H Frame(CFA, -10)
          CFI R11L Frame(CFA, -8)
          CFI R11H Frame(CFA, -6)
          CFI CFA SP+48
          CFI Block cfiCond135 Using cfiCommon0
          CFI (cfiCond135) Function Kalman_Filter_Y
          CFI (cfiCond135) Conditional ??CrossCallReturnLabel_4
          CFI (cfiCond135) R4L Frame(CFA, -36)
          CFI (cfiCond135) R4H Frame(CFA, -34)
          CFI (cfiCond135) R5L Frame(CFA, -32)
          CFI (cfiCond135) R5H Frame(CFA, -30)
          CFI (cfiCond135) R6L Frame(CFA, -28)
          CFI (cfiCond135) R6H Frame(CFA, -26)
          CFI (cfiCond135) R7L Frame(CFA, -24)
          CFI (cfiCond135) R7H Frame(CFA, -22)
          CFI (cfiCond135) R8L Frame(CFA, -20)
          CFI (cfiCond135) R8H Frame(CFA, -18)
          CFI (cfiCond135) R9L Frame(CFA, -16)
          CFI (cfiCond135) R9H Frame(CFA, -14)
          CFI (cfiCond135) R10L Frame(CFA, -12)
          CFI (cfiCond135) R10H Frame(CFA, -10)
          CFI (cfiCond135) R11L Frame(CFA, -8)
          CFI (cfiCond135) R11H Frame(CFA, -6)
          CFI (cfiCond135) CFA SP+48
          CFI Block cfiCond136 Using cfiCommon0
          CFI (cfiCond136) Function Kalman_Filter_X
          CFI (cfiCond136) Conditional ??CrossCallReturnLabel_5
          CFI (cfiCond136) R4L Frame(CFA, -36)
          CFI (cfiCond136) R4H Frame(CFA, -34)
          CFI (cfiCond136) R5L Frame(CFA, -32)
          CFI (cfiCond136) R5H Frame(CFA, -30)
          CFI (cfiCond136) R6L Frame(CFA, -28)
          CFI (cfiCond136) R6H Frame(CFA, -26)
          CFI (cfiCond136) R7L Frame(CFA, -24)
          CFI (cfiCond136) R7H Frame(CFA, -22)
          CFI (cfiCond136) R8L Frame(CFA, -20)
          CFI (cfiCond136) R8H Frame(CFA, -18)
          CFI (cfiCond136) R9L Frame(CFA, -16)
          CFI (cfiCond136) R9H Frame(CFA, -14)
          CFI (cfiCond136) R10L Frame(CFA, -12)
          CFI (cfiCond136) R10H Frame(CFA, -10)
          CFI (cfiCond136) R11L Frame(CFA, -8)
          CFI (cfiCond136) R11H Frame(CFA, -6)
          CFI (cfiCond136) CFA SP+48
          CFI Block cfiCond137 Using cfiCommon0
          CFI (cfiCond137) Function Kalman_Filter_Y
          CFI (cfiCond137) Conditional ??CrossCallReturnLabel_5
          CFI (cfiCond137) R4L Frame(CFA, -36)
          CFI (cfiCond137) R4H Frame(CFA, -34)
          CFI (cfiCond137) R5L Frame(CFA, -32)
          CFI (cfiCond137) R5H Frame(CFA, -30)
          CFI (cfiCond137) R6L Frame(CFA, -28)
          CFI (cfiCond137) R6H Frame(CFA, -26)
          CFI (cfiCond137) R7L Frame(CFA, -24)
          CFI (cfiCond137) R7H Frame(CFA, -22)
          CFI (cfiCond137) R8L Frame(CFA, -20)
          CFI (cfiCond137) R8H Frame(CFA, -18)
          CFI (cfiCond137) R9L Frame(CFA, -16)
          CFI (cfiCond137) R9H Frame(CFA, -14)
          CFI (cfiCond137) R10L Frame(CFA, -12)
          CFI (cfiCond137) R10H Frame(CFA, -10)
          CFI (cfiCond137) R11L Frame(CFA, -8)
          CFI (cfiCond137) R11H Frame(CFA, -6)
          CFI (cfiCond137) CFA SP+48
          CFI Block cfiPicker138 Using cfiCommon1
          CFI (cfiPicker138) NoFunction
          CFI (cfiPicker138) Picker
        MOVX.W  &Q_bias, R14
        MOVX.W  &Q_bias + 2, R15
        RETA
          CFI EndBlock cfiCond134
          CFI EndBlock cfiCond135
          CFI EndBlock cfiCond136
          CFI EndBlock cfiCond137
          CFI EndBlock cfiPicker138
//  225 

        RSEG `CODE`:CODE:REORDER:NOROOT(1)
//  226 void Kalman_Filter_Y(float Accel,float Gyro) //卡尔曼函数
Kalman_Filter_Y:
          CFI Block cfiBlock139 Using cfiCommon0
          CFI Function Kalman_Filter_Y
          CFI NoCalls
//  227 {
        PUSHM.A #0x8, R11
          CFI R4L Frame(CFA, -36)
          CFI R4H Frame(CFA, -34)
          CFI R5L Frame(CFA, -32)
          CFI R5H Frame(CFA, -30)
          CFI R6L Frame(CFA, -28)
          CFI R6H Frame(CFA, -26)
          CFI R7L Frame(CFA, -24)
          CFI R7H Frame(CFA, -22)
          CFI R8L Frame(CFA, -20)
          CFI R8H Frame(CFA, -18)
          CFI R9L Frame(CFA, -16)
          CFI R9H Frame(CFA, -14)
          CFI R10L Frame(CFA, -12)
          CFI R10H Frame(CFA, -10)
          CFI R11L Frame(CFA, -8)
          CFI R11H Frame(CFA, -6)
          CFI CFA SP+36
        PUSHM.W #0x2, R13
          CFI CFA SP+40
//  228     Angle_Y_Final_Kalman += (Gyro - Q_bias) * dt; //先验估计
        PUSHM.W #0x2, R15
          CFI CFA SP+44
        CALLA   #?Subroutine9
??CrossCallReturnLabel_3:
        MOVA    #Angle_Y_Final_Kalman, R11
        JMP     ?Subroutine0
        NOP
//  229 
//  230     Pdot[0]=Q_angle - PP[0][1] - PP[1][0]; // Pk-先验估计误差协方差的微分
//  231 
//  232     Pdot[1]=- PP[1][1];
//  233     Pdot[2]=- PP[1][1];
//  234     Pdot[3]=Q_gyro;
//  235 
//  236     PP[0][0] += Pdot[0] * dt;   // Pk-先验估计误差协方差微分的积分
//  237     PP[0][1] += Pdot[1] * dt;   // =先验估计误差协方差
//  238     PP[1][0] += Pdot[2] * dt;
//  239     PP[1][1] += Pdot[3] * dt;
//  240 
//  241     Angle_err=Accel-Angle_Y_Final_Kalman;  //-先验估计
//  242 
//  243     PCt_0 = C_0 * PP[0][0];
//  244     PCt_1 = C_0 * PP[1][0];
//  245 
//  246     E = R_angle + C_0 * PCt_0;
//  247 
//  248     K_0 = PCt_0 / E;
//  249     K_1 = PCt_1 / E;
//  250 
//  251     t_0 = PCt_0;
//  252     t_1 = C_0 * PP[0][1];
//  253 
//  254     PP[0][0] -= K_0 * t_0;       //后验估计误差协方差
//  255     PP[0][1] -= K_0 * t_1;
//  256     PP[1][0] -= K_1 * t_0;
//  257     PP[1][1] -= K_1 * t_1;
//  258 
//  259     Angle_Y_Final_Kalman   += K_0 * Angle_err;  //后验估计
//  260     Q_bias  += K_1 * Angle_err;  //后验估计
//  261 }
          CFI EndBlock cfiBlock139

        RSEG `CODE`:CODE:REORDER:NOROOT(1)
?Subroutine9:
          CFI Block cfiCond140 Using cfiCommon0
          CFI Function Kalman_Filter_X
          CFI Conditional ??CrossCallReturnLabel_2
          CFI R4L Frame(CFA, -36)
          CFI R4H Frame(CFA, -34)
          CFI R5L Frame(CFA, -32)
          CFI R5H Frame(CFA, -30)
          CFI R6L Frame(CFA, -28)
          CFI R6H Frame(CFA, -26)
          CFI R7L Frame(CFA, -24)
          CFI R7H Frame(CFA, -22)
          CFI R8L Frame(CFA, -20)
          CFI R8H Frame(CFA, -18)
          CFI R9L Frame(CFA, -16)
          CFI R9H Frame(CFA, -14)
          CFI R10L Frame(CFA, -12)
          CFI R10H Frame(CFA, -10)
          CFI R11L Frame(CFA, -8)
          CFI R11H Frame(CFA, -6)
          CFI CFA SP+48
          CFI Block cfiCond141 Using cfiCommon0
          CFI (cfiCond141) Function Kalman_Filter_Y
          CFI (cfiCond141) Conditional ??CrossCallReturnLabel_3
          CFI (cfiCond141) R4L Frame(CFA, -36)
          CFI (cfiCond141) R4H Frame(CFA, -34)
          CFI (cfiCond141) R5L Frame(CFA, -32)
          CFI (cfiCond141) R5H Frame(CFA, -30)
          CFI (cfiCond141) R6L Frame(CFA, -28)
          CFI (cfiCond141) R6H Frame(CFA, -26)
          CFI (cfiCond141) R7L Frame(CFA, -24)
          CFI (cfiCond141) R7H Frame(CFA, -22)
          CFI (cfiCond141) R8L Frame(CFA, -20)
          CFI (cfiCond141) R8H Frame(CFA, -18)
          CFI (cfiCond141) R9L Frame(CFA, -16)
          CFI (cfiCond141) R9H Frame(CFA, -14)
          CFI (cfiCond141) R10L Frame(CFA, -12)
          CFI (cfiCond141) R10H Frame(CFA, -10)
          CFI (cfiCond141) R11L Frame(CFA, -8)
          CFI (cfiCond141) R11H Frame(CFA, -6)
          CFI (cfiCond141) CFA SP+48
          CFI Block cfiPicker142 Using cfiCommon1
          CFI (cfiPicker142) NoFunction
          CFI (cfiPicker142) Picker
        MOVX.W  &dt, R8
        MOVX.W  &dt + 2, R9
        RETA
          CFI EndBlock cfiCond140
          CFI EndBlock cfiCond141
          CFI EndBlock cfiPicker142

        RSEG `CODE`:CODE:NOROOT(1)
?Subroutine14:
          CFI Block cfiCond143 Using cfiCommon0
          CFI Function Kalman_Filter_X
          CFI Conditional ??CrossCallReturnLabel_60
          CFI R4L Frame(CFA, -36)
          CFI R4H Frame(CFA, -34)
          CFI R5L Frame(CFA, -32)
          CFI R5H Frame(CFA, -30)
          CFI R6L Frame(CFA, -28)
          CFI R6H Frame(CFA, -26)
          CFI R7L Frame(CFA, -24)
          CFI R7H Frame(CFA, -22)
          CFI R8L Frame(CFA, -20)
          CFI R8H Frame(CFA, -18)
          CFI R9L Frame(CFA, -16)
          CFI R9H Frame(CFA, -14)
          CFI R10L Frame(CFA, -12)
          CFI R10H Frame(CFA, -10)
          CFI R11L Frame(CFA, -8)
          CFI R11H Frame(CFA, -6)
          CFI CFA SP+48
          CFI Block cfiCond144 Using cfiCommon0
          CFI (cfiCond144) Function Kalman_Filter_Y
          CFI (cfiCond144) Conditional ??CrossCallReturnLabel_60
          CFI (cfiCond144) R4L Frame(CFA, -36)
          CFI (cfiCond144) R4H Frame(CFA, -34)
          CFI (cfiCond144) R5L Frame(CFA, -32)
          CFI (cfiCond144) R5H Frame(CFA, -30)
          CFI (cfiCond144) R6L Frame(CFA, -28)
          CFI (cfiCond144) R6H Frame(CFA, -26)
          CFI (cfiCond144) R7L Frame(CFA, -24)
          CFI (cfiCond144) R7H Frame(CFA, -22)
          CFI (cfiCond144) R8L Frame(CFA, -20)
          CFI (cfiCond144) R8H Frame(CFA, -18)
          CFI (cfiCond144) R9L Frame(CFA, -16)
          CFI (cfiCond144) R9H Frame(CFA, -14)
          CFI (cfiCond144) R10L Frame(CFA, -12)
          CFI (cfiCond144) R10H Frame(CFA, -10)
          CFI (cfiCond144) R11L Frame(CFA, -8)
          CFI (cfiCond144) R11H Frame(CFA, -6)
          CFI (cfiCond144) CFA SP+48
          CFI Block cfiCond145 Using cfiCommon0
          CFI (cfiCond145) Function Kalman_Filter_X
          CFI (cfiCond145) Conditional ??CrossCallReturnLabel_61
          CFI (cfiCond145) R4L Frame(CFA, -36)
          CFI (cfiCond145) R4H Frame(CFA, -34)
          CFI (cfiCond145) R5L Frame(CFA, -32)
          CFI (cfiCond145) R5H Frame(CFA, -30)
          CFI (cfiCond145) R6L Frame(CFA, -28)
          CFI (cfiCond145) R6H Frame(CFA, -26)
          CFI (cfiCond145) R7L Frame(CFA, -24)
          CFI (cfiCond145) R7H Frame(CFA, -22)
          CFI (cfiCond145) R8L Frame(CFA, -20)
          CFI (cfiCond145) R8H Frame(CFA, -18)
          CFI (cfiCond145) R9L Frame(CFA, -16)
          CFI (cfiCond145) R9H Frame(CFA, -14)
          CFI (cfiCond145) R10L Frame(CFA, -12)
          CFI (cfiCond145) R10H Frame(CFA, -10)
          CFI (cfiCond145) R11L Frame(CFA, -8)
          CFI (cfiCond145) R11H Frame(CFA, -6)
          CFI (cfiCond145) CFA SP+48
          CFI Block cfiCond146 Using cfiCommon0
          CFI (cfiCond146) Function Kalman_Filter_Y
          CFI (cfiCond146) Conditional ??CrossCallReturnLabel_61
          CFI (cfiCond146) R4L Frame(CFA, -36)
          CFI (cfiCond146) R4H Frame(CFA, -34)
          CFI (cfiCond146) R5L Frame(CFA, -32)
          CFI (cfiCond146) R5H Frame(CFA, -30)
          CFI (cfiCond146) R6L Frame(CFA, -28)
          CFI (cfiCond146) R6H Frame(CFA, -26)
          CFI (cfiCond146) R7L Frame(CFA, -24)
          CFI (cfiCond146) R7H Frame(CFA, -22)
          CFI (cfiCond146) R8L Frame(CFA, -20)
          CFI (cfiCond146) R8H Frame(CFA, -18)
          CFI (cfiCond146) R9L Frame(CFA, -16)
          CFI (cfiCond146) R9H Frame(CFA, -14)
          CFI (cfiCond146) R10L Frame(CFA, -12)
          CFI (cfiCond146) R10H Frame(CFA, -10)
          CFI (cfiCond146) R11L Frame(CFA, -8)
          CFI (cfiCond146) R11H Frame(CFA, -6)
          CFI (cfiCond146) CFA SP+48
          CFI Block cfiPicker147 Using cfiCommon1
          CFI (cfiPicker147) NoFunction
          CFI (cfiPicker147) Picker
        MOV.W   R4, R12
        MOV.W   R5, R13
          CFI EndBlock cfiCond143
          CFI EndBlock cfiCond144
          CFI EndBlock cfiCond145
          CFI EndBlock cfiCond146
          CFI EndBlock cfiPicker147
        REQUIRE ??Subroutine14_0
        // Fall through to label ??Subroutine14_0

        RSEG `CODE`:CODE:REORDER:NOROOT(1)
??Subroutine14_0:
          CFI Block cfiCond148 Using cfiCommon0
          CFI Function Kalman_Filter_X
          CFI Conditional ??CrossCallReturnLabel_57
          CFI R4L Frame(CFA, -36)
          CFI R4H Frame(CFA, -34)
          CFI R5L Frame(CFA, -32)
          CFI R5H Frame(CFA, -30)
          CFI R6L Frame(CFA, -28)
          CFI R6H Frame(CFA, -26)
          CFI R7L Frame(CFA, -24)
          CFI R7H Frame(CFA, -22)
          CFI R8L Frame(CFA, -20)
          CFI R8H Frame(CFA, -18)
          CFI R9L Frame(CFA, -16)
          CFI R9H Frame(CFA, -14)
          CFI R10L Frame(CFA, -12)
          CFI R10H Frame(CFA, -10)
          CFI R11L Frame(CFA, -8)
          CFI R11H Frame(CFA, -6)
          CFI CFA SP+48
          CFI Block cfiCond149 Using cfiCommon0
          CFI (cfiCond149) Function Kalman_Filter_Y
          CFI (cfiCond149) Conditional ??CrossCallReturnLabel_57
          CFI (cfiCond149) R4L Frame(CFA, -36)
          CFI (cfiCond149) R4H Frame(CFA, -34)
          CFI (cfiCond149) R5L Frame(CFA, -32)
          CFI (cfiCond149) R5H Frame(CFA, -30)
          CFI (cfiCond149) R6L Frame(CFA, -28)
          CFI (cfiCond149) R6H Frame(CFA, -26)
          CFI (cfiCond149) R7L Frame(CFA, -24)
          CFI (cfiCond149) R7H Frame(CFA, -22)
          CFI (cfiCond149) R8L Frame(CFA, -20)
          CFI (cfiCond149) R8H Frame(CFA, -18)
          CFI (cfiCond149) R9L Frame(CFA, -16)
          CFI (cfiCond149) R9H Frame(CFA, -14)
          CFI (cfiCond149) R10L Frame(CFA, -12)
          CFI (cfiCond149) R10H Frame(CFA, -10)
          CFI (cfiCond149) R11L Frame(CFA, -8)
          CFI (cfiCond149) R11H Frame(CFA, -6)
          CFI (cfiCond149) CFA SP+48
          CFI Block cfiCond150 Using cfiCommon0
          CFI (cfiCond150) Function Kalman_Filter_X
          CFI (cfiCond150) Conditional ??CrossCallReturnLabel_58
          CFI (cfiCond150) R4L Frame(CFA, -36)
          CFI (cfiCond150) R4H Frame(CFA, -34)
          CFI (cfiCond150) R5L Frame(CFA, -32)
          CFI (cfiCond150) R5H Frame(CFA, -30)
          CFI (cfiCond150) R6L Frame(CFA, -28)
          CFI (cfiCond150) R6H Frame(CFA, -26)
          CFI (cfiCond150) R7L Frame(CFA, -24)
          CFI (cfiCond150) R7H Frame(CFA, -22)
          CFI (cfiCond150) R8L Frame(CFA, -20)
          CFI (cfiCond150) R8H Frame(CFA, -18)
          CFI (cfiCond150) R9L Frame(CFA, -16)
          CFI (cfiCond150) R9H Frame(CFA, -14)
          CFI (cfiCond150) R10L Frame(CFA, -12)
          CFI (cfiCond150) R10H Frame(CFA, -10)
          CFI (cfiCond150) R11L Frame(CFA, -8)
          CFI (cfiCond150) R11H Frame(CFA, -6)
          CFI (cfiCond150) CFA SP+48
          CFI Block cfiCond151 Using cfiCommon0
          CFI (cfiCond151) Function Kalman_Filter_Y
          CFI (cfiCond151) Conditional ??CrossCallReturnLabel_58
          CFI (cfiCond151) R4L Frame(CFA, -36)
          CFI (cfiCond151) R4H Frame(CFA, -34)
          CFI (cfiCond151) R5L Frame(CFA, -32)
          CFI (cfiCond151) R5H Frame(CFA, -30)
          CFI (cfiCond151) R6L Frame(CFA, -28)
          CFI (cfiCond151) R6H Frame(CFA, -26)
          CFI (cfiCond151) R7L Frame(CFA, -24)
          CFI (cfiCond151) R7H Frame(CFA, -22)
          CFI (cfiCond151) R8L Frame(CFA, -20)
          CFI (cfiCond151) R8H Frame(CFA, -18)
          CFI (cfiCond151) R9L Frame(CFA, -16)
          CFI (cfiCond151) R9H Frame(CFA, -14)
          CFI (cfiCond151) R10L Frame(CFA, -12)
          CFI (cfiCond151) R10H Frame(CFA, -10)
          CFI (cfiCond151) R11L Frame(CFA, -8)
          CFI (cfiCond151) R11H Frame(CFA, -6)
          CFI (cfiCond151) CFA SP+48
          CFI Block cfiCond152 Using cfiCommon0
          CFI (cfiCond152) Function Kalman_Filter_X
          CFI (cfiCond152) Conditional ??CrossCallReturnLabel_59
          CFI (cfiCond152) R4L Frame(CFA, -36)
          CFI (cfiCond152) R4H Frame(CFA, -34)
          CFI (cfiCond152) R5L Frame(CFA, -32)
          CFI (cfiCond152) R5H Frame(CFA, -30)
          CFI (cfiCond152) R6L Frame(CFA, -28)
          CFI (cfiCond152) R6H Frame(CFA, -26)
          CFI (cfiCond152) R7L Frame(CFA, -24)
          CFI (cfiCond152) R7H Frame(CFA, -22)
          CFI (cfiCond152) R8L Frame(CFA, -20)
          CFI (cfiCond152) R8H Frame(CFA, -18)
          CFI (cfiCond152) R9L Frame(CFA, -16)
          CFI (cfiCond152) R9H Frame(CFA, -14)
          CFI (cfiCond152) R10L Frame(CFA, -12)
          CFI (cfiCond152) R10H Frame(CFA, -10)
          CFI (cfiCond152) R11L Frame(CFA, -8)
          CFI (cfiCond152) R11H Frame(CFA, -6)
          CFI (cfiCond152) CFA SP+52
          CFI Block cfiCond153 Using cfiCommon0
          CFI (cfiCond153) Function Kalman_Filter_Y
          CFI (cfiCond153) Conditional ??CrossCallReturnLabel_59
          CFI (cfiCond153) R4L Frame(CFA, -36)
          CFI (cfiCond153) R4H Frame(CFA, -34)
          CFI (cfiCond153) R5L Frame(CFA, -32)
          CFI (cfiCond153) R5H Frame(CFA, -30)
          CFI (cfiCond153) R6L Frame(CFA, -28)
          CFI (cfiCond153) R6H Frame(CFA, -26)
          CFI (cfiCond153) R7L Frame(CFA, -24)
          CFI (cfiCond153) R7H Frame(CFA, -22)
          CFI (cfiCond153) R8L Frame(CFA, -20)
          CFI (cfiCond153) R8H Frame(CFA, -18)
          CFI (cfiCond153) R9L Frame(CFA, -16)
          CFI (cfiCond153) R9H Frame(CFA, -14)
          CFI (cfiCond153) R10L Frame(CFA, -12)
          CFI (cfiCond153) R10H Frame(CFA, -10)
          CFI (cfiCond153) R11L Frame(CFA, -8)
          CFI (cfiCond153) R11H Frame(CFA, -6)
          CFI (cfiCond153) CFA SP+52
          CFI Block cfiCond154 Using cfiCommon0
          CFI (cfiCond154) Function MPU6050_Tim
          CFI (cfiCond154) Conditional ??CrossCallReturnLabel_56
          CFI (cfiCond154) R4L Frame(CFA, -36)
          CFI (cfiCond154) R4H Frame(CFA, -34)
          CFI (cfiCond154) R5L Frame(CFA, -32)
          CFI (cfiCond154) R5H Frame(CFA, -30)
          CFI (cfiCond154) R6L Frame(CFA, -28)
          CFI (cfiCond154) R6H Frame(CFA, -26)
          CFI (cfiCond154) R7L Frame(CFA, -24)
          CFI (cfiCond154) R7H Frame(CFA, -22)
          CFI (cfiCond154) R8L Frame(CFA, -20)
          CFI (cfiCond154) R8H Frame(CFA, -18)
          CFI (cfiCond154) R9L Frame(CFA, -16)
          CFI (cfiCond154) R9H Frame(CFA, -14)
          CFI (cfiCond154) R10L Frame(CFA, -12)
          CFI (cfiCond154) R10H Frame(CFA, -10)
          CFI (cfiCond154) R11L Frame(CFA, -8)
          CFI (cfiCond154) R11H Frame(CFA, -6)
          CFI (cfiCond154) CFA SP+42
          CFI Block cfiCond155 Using cfiCommon0
          CFI (cfiCond155) Function Kalman_Filter_X
          CFI (cfiCond155) Conditional ??CrossCallReturnLabel_60
          CFI (cfiCond155) R4L Frame(CFA, -36)
          CFI (cfiCond155) R4H Frame(CFA, -34)
          CFI (cfiCond155) R5L Frame(CFA, -32)
          CFI (cfiCond155) R5H Frame(CFA, -30)
          CFI (cfiCond155) R6L Frame(CFA, -28)
          CFI (cfiCond155) R6H Frame(CFA, -26)
          CFI (cfiCond155) R7L Frame(CFA, -24)
          CFI (cfiCond155) R7H Frame(CFA, -22)
          CFI (cfiCond155) R8L Frame(CFA, -20)
          CFI (cfiCond155) R8H Frame(CFA, -18)
          CFI (cfiCond155) R9L Frame(CFA, -16)
          CFI (cfiCond155) R9H Frame(CFA, -14)
          CFI (cfiCond155) R10L Frame(CFA, -12)
          CFI (cfiCond155) R10H Frame(CFA, -10)
          CFI (cfiCond155) R11L Frame(CFA, -8)
          CFI (cfiCond155) R11H Frame(CFA, -6)
          CFI (cfiCond155) CFA SP+48
          CFI Block cfiCond156 Using cfiCommon0
          CFI (cfiCond156) Function Kalman_Filter_Y
          CFI (cfiCond156) Conditional ??CrossCallReturnLabel_60
          CFI (cfiCond156) R4L Frame(CFA, -36)
          CFI (cfiCond156) R4H Frame(CFA, -34)
          CFI (cfiCond156) R5L Frame(CFA, -32)
          CFI (cfiCond156) R5H Frame(CFA, -30)
          CFI (cfiCond156) R6L Frame(CFA, -28)
          CFI (cfiCond156) R6H Frame(CFA, -26)
          CFI (cfiCond156) R7L Frame(CFA, -24)
          CFI (cfiCond156) R7H Frame(CFA, -22)
          CFI (cfiCond156) R8L Frame(CFA, -20)
          CFI (cfiCond156) R8H Frame(CFA, -18)
          CFI (cfiCond156) R9L Frame(CFA, -16)
          CFI (cfiCond156) R9H Frame(CFA, -14)
          CFI (cfiCond156) R10L Frame(CFA, -12)
          CFI (cfiCond156) R10H Frame(CFA, -10)
          CFI (cfiCond156) R11L Frame(CFA, -8)
          CFI (cfiCond156) R11H Frame(CFA, -6)
          CFI (cfiCond156) CFA SP+48
          CFI Block cfiCond157 Using cfiCommon0
          CFI (cfiCond157) Function Kalman_Filter_X
          CFI (cfiCond157) Conditional ??CrossCallReturnLabel_61
          CFI (cfiCond157) R4L Frame(CFA, -36)
          CFI (cfiCond157) R4H Frame(CFA, -34)
          CFI (cfiCond157) R5L Frame(CFA, -32)
          CFI (cfiCond157) R5H Frame(CFA, -30)
          CFI (cfiCond157) R6L Frame(CFA, -28)
          CFI (cfiCond157) R6H Frame(CFA, -26)
          CFI (cfiCond157) R7L Frame(CFA, -24)
          CFI (cfiCond157) R7H Frame(CFA, -22)
          CFI (cfiCond157) R8L Frame(CFA, -20)
          CFI (cfiCond157) R8H Frame(CFA, -18)
          CFI (cfiCond157) R9L Frame(CFA, -16)
          CFI (cfiCond157) R9H Frame(CFA, -14)
          CFI (cfiCond157) R10L Frame(CFA, -12)
          CFI (cfiCond157) R10H Frame(CFA, -10)
          CFI (cfiCond157) R11L Frame(CFA, -8)
          CFI (cfiCond157) R11H Frame(CFA, -6)
          CFI (cfiCond157) CFA SP+48
          CFI Block cfiCond158 Using cfiCommon0
          CFI (cfiCond158) Function Kalman_Filter_Y
          CFI (cfiCond158) Conditional ??CrossCallReturnLabel_61
          CFI (cfiCond158) R4L Frame(CFA, -36)
          CFI (cfiCond158) R4H Frame(CFA, -34)
          CFI (cfiCond158) R5L Frame(CFA, -32)
          CFI (cfiCond158) R5H Frame(CFA, -30)
          CFI (cfiCond158) R6L Frame(CFA, -28)
          CFI (cfiCond158) R6H Frame(CFA, -26)
          CFI (cfiCond158) R7L Frame(CFA, -24)
          CFI (cfiCond158) R7H Frame(CFA, -22)
          CFI (cfiCond158) R8L Frame(CFA, -20)
          CFI (cfiCond158) R8H Frame(CFA, -18)
          CFI (cfiCond158) R9L Frame(CFA, -16)
          CFI (cfiCond158) R9H Frame(CFA, -14)
          CFI (cfiCond158) R10L Frame(CFA, -12)
          CFI (cfiCond158) R10H Frame(CFA, -10)
          CFI (cfiCond158) R11L Frame(CFA, -8)
          CFI (cfiCond158) R11H Frame(CFA, -6)
          CFI (cfiCond158) CFA SP+48
          CFI Block cfiPicker159 Using cfiCommon1
          CFI (cfiPicker159) NoFunction
          CFI (cfiPicker159) Picker
        MOV.W   R8, R14
        MOV.W   R9, R15
          CFI (cfiCond148) TailCall Kalman_Filter_X _Mul32f
          CFI (cfiCond149) TailCall Kalman_Filter_Y _Mul32f
          CFI (cfiCond148) TailCall Kalman_Filter_X _Mul32f
          CFI (cfiCond149) TailCall Kalman_Filter_Y _Mul32f
          CFI (cfiCond148) TailCall Kalman_Filter_X _Mul32f
          CFI (cfiCond149) TailCall Kalman_Filter_Y _Mul32f
          CFI (cfiCond154) TailCall MPU6050_Tim _Mul32f
          CFI (cfiCond148) TailCall Kalman_Filter_X _Mul32f
          CFI (cfiCond149) TailCall Kalman_Filter_Y _Mul32f
          CFI (cfiCond148) TailCall Kalman_Filter_X _Mul32f
          CFI (cfiCond149) TailCall Kalman_Filter_Y _Mul32f
        BRA     #_Mul32f
          CFI EndBlock cfiCond148
          CFI EndBlock cfiCond149
          CFI EndBlock cfiCond150
          CFI EndBlock cfiCond151
          CFI EndBlock cfiCond152
          CFI EndBlock cfiCond153
          CFI EndBlock cfiCond154
          CFI EndBlock cfiCond155
          CFI EndBlock cfiCond156
          CFI EndBlock cfiCond157
          CFI EndBlock cfiCond158
          CFI EndBlock cfiPicker159
//  262 ///******************
//  263 // * @brief 陀螺仪数据采集
//  264 // * @param 无；
//  265 // * @see MPU6050_Tim();
//  266 // *
//  267 // * */
//  268 //

        RSEG `CODE`:CODE:REORDER:NOROOT(1)
//  269 void MPU6050_Tim(void)
MPU6050_Tim:
          CFI Block cfiBlock160 Using cfiCommon0
          CFI Function MPU6050_Tim
//  270 {
        PUSHM.A #0x8, R11
          CFI R4L Frame(CFA, -36)
          CFI R4H Frame(CFA, -34)
          CFI R5L Frame(CFA, -32)
          CFI R5H Frame(CFA, -30)
          CFI R6L Frame(CFA, -28)
          CFI R6H Frame(CFA, -26)
          CFI R7L Frame(CFA, -24)
          CFI R7H Frame(CFA, -22)
          CFI R8L Frame(CFA, -20)
          CFI R8H Frame(CFA, -18)
          CFI R9L Frame(CFA, -16)
          CFI R9H Frame(CFA, -14)
          CFI R10L Frame(CFA, -12)
          CFI R10H Frame(CFA, -10)
          CFI R11L Frame(CFA, -8)
          CFI R11H Frame(CFA, -6)
          CFI CFA SP+36
        SUBA    #0x2, SP
          CFI CFA SP+38
//  271 //    char txt[16];
//  272     short aacx,aacy,aacz;    //加速度传感器原始数据
//  273     short gyrox,gyroy,gyroz; //陀螺仪原始数据
//  274 
//  275 //    MPU_Get_Raw_data(&aacx,&aacy,&aacz,&gyrox,&gyroy,&gyroz);   //得到加速度传感器数据
//  276     aacx = MPU6050_GET(ACCEL_XOUT_H);
        MOVA    #MPU6050_GET, R8
        MOV.B   #0x3b, R12
          CFI FunCall MPU6050_GET
        CALLA   R8
        MOV.W   R12, R7
//  277     aacy = MPU6050_GET(ACCEL_YOUT_H);
        MOV.B   #0x3d, R12
          CFI FunCall MPU6050_GET
        CALLA   R8
        MOV.W   R12, R11
//  278     aacz = MPU6050_GET(ACCEL_ZOUT_H);
        MOV.B   #0x3f, R12
          CFI FunCall MPU6050_GET
        CALLA   R8
        MOV.W   R12, R10
//  279     gyrox = MPU6050_GET(GYRO_XOUT_H);
        MOV.B   #0x43, R12
          CFI FunCall MPU6050_GET
        CALLA   R8
        MOV.W   R12, 0(SP)
//  280     gyroy = MPU6050_GET(GYRO_YOUT_H);
        MOV.B   #0x45, R12
          CFI FunCall MPU6050_GET
        CALLA   R8
        MOV.W   R12, R4
//  281     gyroz = MPU6050_GET(GYRO_ZOUT_H);
        MOV.B   #0x47, R12
          CFI FunCall MPU6050_GET
        CALLA   R8
        MOV.W   R12, R5
//  282 
//  283     ax = (9.8*aacx)/8192;//姿态解算
        MOV.W   R7, R12
        MOV.W   R7, R13
        CALLA   #?Subroutine11
??CrossCallReturnLabel_6:
        MOV.W   R12, R8
        MOV.W   R13, R9
        MOVX.W  R12, &ax
        MOVX.W  R13, &ax + 2
//  284     ay = (9.8*aacy)/8192;
        MOV.W   R11, R12
        MOV.W   R11, R13
        CALLA   #?Subroutine11
??CrossCallReturnLabel_7:
        MOV.W   R12, R6
        MOV.W   R13, R7
        MOVX.W  R12, &ay
        MOVX.W  R13, &ay + 2
//  285     az = (9.8*aacz)/8192;
        MOV.W   R10, R12
        MOV.W   R10, R13
        CALLA   #?Subroutine11
??CrossCallReturnLabel_8:
        MOV.W   R12, R10
        MOV.W   R13, R11
        MOVX.W  R12, &az
        MOVX.W  R13, &az + 2
        MOV.W   @SP, R12
        MOV.W   R12, R13
        CALLA   #?Subroutine20
??CrossCallReturnLabel_27:
        MOVX.W  R12, &Gyro_x
        MOVX.W  R13, &Gyro_x + 2
//  286 
//  287     Gyro_x = (gyrox)/16.4;
//  288     Gyro_y = (gyroy)/16.4;
        MOV.W   R4, R12
        MOV.W   R4, R13
        CALLA   #?Subroutine20
??CrossCallReturnLabel_28:
        MOVX.W  R12, &Gyro_y
        MOVX.W  R13, &Gyro_y + 2
        MOVA    #Gyro_z, R4
        MOV.W   R5, R12
        MOV.W   R5, R13
        CALLA   #?Subroutine20
??CrossCallReturnLabel_29:
        MOV.W   R12, 0(R4)
        MOV.W   R13, 0x2(R4)
//  289     Gyro_z = (gyroz)/16.4;
//  290 
//  291 
//  292     //用加速度计算三个轴和水平面坐标系之间的夹角
//  293 //    Angle_x_temp=(atan((float)(ay)/(float)(az)))*180/3.14;   //计算x轴夹角
//  294     Angle_y_temp=(atan((float)(ax)/(float)(az)))*180/3.14;   //计算y轴夹角
        MOV.W   R8, R12
        MOV.W   R9, R13
        MOV.W   R10, R14
        MOV.W   R11, R15
        CALLA   #?Subroutine13
??CrossCallReturnLabel_12:
        MOVX.W  R12, &Angle_y_temp
        MOVX.W  R13, &Angle_y_temp + 2
//  295 
//  296     Angle_x_temp = (atan(ay / sqrt(pow(ax, 2) + pow(az, 2))) * 180 / 3.14);
        MOV.W   R8, R12
        MOV.W   R9, R13
        CALLA   #??Subroutine14_0
??CrossCallReturnLabel_56:
        MOV.W   R12, R8
        MOV.W   R13, R9
        MOV.W   R10, R12
        MOV.W   R11, R13
        MOV.W   R10, R14
        MOV.W   R11, R15
          CFI FunCall _Mul32f
        CALLA   #_Mul32f
        MOV.W   R8, R14
        MOV.W   R9, R15
          CFI FunCall _Add32f
        CALLA   #_Add32f
          CFI FunCall sqrt
        CALLA   #sqrt
        MOV.W   R12, R14
        MOV.W   R13, R15
        MOV.W   R6, R12
        MOV.W   R7, R13
        CALLA   #?Subroutine13
??CrossCallReturnLabel_11:
        MOVX.W  R12, &Angle_x_temp
        MOVX.W  R13, &Angle_x_temp + 2
//  297     Kalman_Filter_X(Angle_x_temp,Gyro_z);
        MOV.W   @R4, R14
        MOV.W   0x2(R4), R15
          CFI FunCall Kalman_Filter_X
        CALLA   #Kalman_Filter_X
//  298     Kalman_Filter_Y(Angle_y_temp,Gyro_z);
        MOV.W   @R4+, R14
        MOV.W   @R4+, R15
        MOVX.W  &Angle_y_temp, R12
        MOVX.W  &Angle_y_temp + 2, R13
          CFI FunCall Kalman_Filter_Y
        CALLA   #Kalman_Filter_Y
//  299 //    sprintf(txt,"Angle_X:%f", Angle_X_Final_Kalman);
//  300 //    TFTSPI_P6X8Str(1,12,txt,u16YELLOW, u16BLUE);
//  301 //    OLED_DispDecAt(FONT_ASCII_6X8,3,50,Angle_X_Final_Kalman,3);          //显示接收到的数据加速度Y
//  302 //    OLED_DispDecAt(FONT_ASCII_6X8,5,50,Angle_Y_Final_Kalman,3);          //显示接收到的数据加速度Z
//  303 }
        ADDA    #0x2, SP
          CFI CFA SP+36
        POPM.A  #0x8, R11
          CFI R10H SameValue
          CFI R11H SameValue
          CFI R4H SameValue
          CFI R5H SameValue
          CFI R6H SameValue
          CFI R7H SameValue
          CFI R8H SameValue
          CFI R9H SameValue
          CFI R10L SameValue
          CFI R11L SameValue
          CFI R4L SameValue
          CFI R5L SameValue
          CFI R6L SameValue
          CFI R7L SameValue
          CFI R8L SameValue
          CFI R9L SameValue
          CFI CFA SP+4
        RETA
          CFI EndBlock cfiBlock160

        RSEG `CODE`:CODE:REORDER:NOROOT(1)
?Subroutine20:
          CFI Block cfiCond161 Using cfiCommon0
          CFI Function MPU6050_Tim
          CFI Conditional ??CrossCallReturnLabel_27
          CFI R4L Frame(CFA, -36)
          CFI R4H Frame(CFA, -34)
          CFI R5L Frame(CFA, -32)
          CFI R5H Frame(CFA, -30)
          CFI R6L Frame(CFA, -28)
          CFI R6H Frame(CFA, -26)
          CFI R7L Frame(CFA, -24)
          CFI R7H Frame(CFA, -22)
          CFI R8L Frame(CFA, -20)
          CFI R8H Frame(CFA, -18)
          CFI R9L Frame(CFA, -16)
          CFI R9H Frame(CFA, -14)
          CFI R10L Frame(CFA, -12)
          CFI R10H Frame(CFA, -10)
          CFI R11L Frame(CFA, -8)
          CFI R11H Frame(CFA, -6)
          CFI CFA SP+42
          CFI Block cfiCond162 Using cfiCommon0
          CFI (cfiCond162) Function MPU6050_Tim
          CFI (cfiCond162) Conditional ??CrossCallReturnLabel_28
          CFI (cfiCond162) R4L Frame(CFA, -36)
          CFI (cfiCond162) R4H Frame(CFA, -34)
          CFI (cfiCond162) R5L Frame(CFA, -32)
          CFI (cfiCond162) R5H Frame(CFA, -30)
          CFI (cfiCond162) R6L Frame(CFA, -28)
          CFI (cfiCond162) R6H Frame(CFA, -26)
          CFI (cfiCond162) R7L Frame(CFA, -24)
          CFI (cfiCond162) R7H Frame(CFA, -22)
          CFI (cfiCond162) R8L Frame(CFA, -20)
          CFI (cfiCond162) R8H Frame(CFA, -18)
          CFI (cfiCond162) R9L Frame(CFA, -16)
          CFI (cfiCond162) R9H Frame(CFA, -14)
          CFI (cfiCond162) R10L Frame(CFA, -12)
          CFI (cfiCond162) R10H Frame(CFA, -10)
          CFI (cfiCond162) R11L Frame(CFA, -8)
          CFI (cfiCond162) R11H Frame(CFA, -6)
          CFI (cfiCond162) CFA SP+42
          CFI Block cfiCond163 Using cfiCommon0
          CFI (cfiCond163) Function MPU6050_Tim
          CFI (cfiCond163) Conditional ??CrossCallReturnLabel_29
          CFI (cfiCond163) R4L Frame(CFA, -36)
          CFI (cfiCond163) R4H Frame(CFA, -34)
          CFI (cfiCond163) R5L Frame(CFA, -32)
          CFI (cfiCond163) R5H Frame(CFA, -30)
          CFI (cfiCond163) R6L Frame(CFA, -28)
          CFI (cfiCond163) R6H Frame(CFA, -26)
          CFI (cfiCond163) R7L Frame(CFA, -24)
          CFI (cfiCond163) R7H Frame(CFA, -22)
          CFI (cfiCond163) R8L Frame(CFA, -20)
          CFI (cfiCond163) R8H Frame(CFA, -18)
          CFI (cfiCond163) R9L Frame(CFA, -16)
          CFI (cfiCond163) R9H Frame(CFA, -14)
          CFI (cfiCond163) R10L Frame(CFA, -12)
          CFI (cfiCond163) R10H Frame(CFA, -10)
          CFI (cfiCond163) R11L Frame(CFA, -8)
          CFI (cfiCond163) R11H Frame(CFA, -6)
          CFI (cfiCond163) CFA SP+42
          CFI Block cfiPicker164 Using cfiCommon1
          CFI (cfiPicker164) NoFunction
          CFI (cfiPicker164) Picker
        CALLA   #?Subroutine24
??CrossCallReturnLabel_33:
        MOV.W   #0x3333, R14
        MOV.W   #0x4183, R15
          CFI (cfiCond161) TailCall MPU6050_Tim _Div32f
          CFI (cfiCond161) TailCall MPU6050_Tim _Div32f
          CFI (cfiCond161) TailCall MPU6050_Tim _Div32f
        BRA     #_Div32f
          CFI EndBlock cfiCond161
          CFI EndBlock cfiCond162
          CFI EndBlock cfiCond163
          CFI EndBlock cfiPicker164

        RSEG `CODE`:CODE:REORDER:NOROOT(1)
?Subroutine13:
          CFI Block cfiCond165 Using cfiCommon0
          CFI Function MPU6050_Tim
          CFI Conditional ??CrossCallReturnLabel_12
          CFI R4L Frame(CFA, -36)
          CFI R4H Frame(CFA, -34)
          CFI R5L Frame(CFA, -32)
          CFI R5H Frame(CFA, -30)
          CFI R6L Frame(CFA, -28)
          CFI R6H Frame(CFA, -26)
          CFI R7L Frame(CFA, -24)
          CFI R7H Frame(CFA, -22)
          CFI R8L Frame(CFA, -20)
          CFI R8H Frame(CFA, -18)
          CFI R9L Frame(CFA, -16)
          CFI R9H Frame(CFA, -14)
          CFI R10L Frame(CFA, -12)
          CFI R10H Frame(CFA, -10)
          CFI R11L Frame(CFA, -8)
          CFI R11H Frame(CFA, -6)
          CFI CFA SP+42
          CFI Block cfiCond166 Using cfiCommon0
          CFI (cfiCond166) Function MPU6050_Tim
          CFI (cfiCond166) Conditional ??CrossCallReturnLabel_11
          CFI (cfiCond166) R4L Frame(CFA, -36)
          CFI (cfiCond166) R4H Frame(CFA, -34)
          CFI (cfiCond166) R5L Frame(CFA, -32)
          CFI (cfiCond166) R5H Frame(CFA, -30)
          CFI (cfiCond166) R6L Frame(CFA, -28)
          CFI (cfiCond166) R6H Frame(CFA, -26)
          CFI (cfiCond166) R7L Frame(CFA, -24)
          CFI (cfiCond166) R7H Frame(CFA, -22)
          CFI (cfiCond166) R8L Frame(CFA, -20)
          CFI (cfiCond166) R8H Frame(CFA, -18)
          CFI (cfiCond166) R9L Frame(CFA, -16)
          CFI (cfiCond166) R9H Frame(CFA, -14)
          CFI (cfiCond166) R10L Frame(CFA, -12)
          CFI (cfiCond166) R10H Frame(CFA, -10)
          CFI (cfiCond166) R11L Frame(CFA, -8)
          CFI (cfiCond166) R11H Frame(CFA, -6)
          CFI (cfiCond166) CFA SP+42
          CFI Block cfiPicker167 Using cfiCommon1
          CFI (cfiPicker167) NoFunction
          CFI (cfiPicker167) Picker
          CFI (cfiCond165) FunCall MPU6050_Tim _Div32f
          CFI (cfiCond165) FunCall MPU6050_Tim _Div32f
        CALLA   #_Div32f
          CFI (cfiCond165) FunCall MPU6050_Tim atan
          CFI (cfiCond165) FunCall MPU6050_Tim atan
        CALLA   #atan
        MOV.W   #0x0, R14
        MOV.W   #0x4334, R15
          CFI (cfiCond165) FunCall MPU6050_Tim _Mul32f
          CFI (cfiCond165) FunCall MPU6050_Tim _Mul32f
        CALLA   #_Mul32f
        MOV.W   #0xf5c3, R14
        MOV.W   #0x4048, R15
          CFI (cfiCond165) TailCall MPU6050_Tim _Div32f
          CFI (cfiCond165) TailCall MPU6050_Tim _Div32f
        BRA     #_Div32f
          CFI EndBlock cfiCond165
          CFI EndBlock cfiCond166
          CFI EndBlock cfiPicker167

        RSEG `CODE`:CODE:REORDER:NOROOT(1)
?Subroutine11:
          CFI Block cfiCond168 Using cfiCommon0
          CFI Function MPU6050_Tim
          CFI Conditional ??CrossCallReturnLabel_6
          CFI R4L Frame(CFA, -36)
          CFI R4H Frame(CFA, -34)
          CFI R5L Frame(CFA, -32)
          CFI R5H Frame(CFA, -30)
          CFI R6L Frame(CFA, -28)
          CFI R6H Frame(CFA, -26)
          CFI R7L Frame(CFA, -24)
          CFI R7H Frame(CFA, -22)
          CFI R8L Frame(CFA, -20)
          CFI R8H Frame(CFA, -18)
          CFI R9L Frame(CFA, -16)
          CFI R9H Frame(CFA, -14)
          CFI R10L Frame(CFA, -12)
          CFI R10H Frame(CFA, -10)
          CFI R11L Frame(CFA, -8)
          CFI R11H Frame(CFA, -6)
          CFI CFA SP+42
          CFI Block cfiCond169 Using cfiCommon0
          CFI (cfiCond169) Function MPU6050_Tim
          CFI (cfiCond169) Conditional ??CrossCallReturnLabel_7
          CFI (cfiCond169) R4L Frame(CFA, -36)
          CFI (cfiCond169) R4H Frame(CFA, -34)
          CFI (cfiCond169) R5L Frame(CFA, -32)
          CFI (cfiCond169) R5H Frame(CFA, -30)
          CFI (cfiCond169) R6L Frame(CFA, -28)
          CFI (cfiCond169) R6H Frame(CFA, -26)
          CFI (cfiCond169) R7L Frame(CFA, -24)
          CFI (cfiCond169) R7H Frame(CFA, -22)
          CFI (cfiCond169) R8L Frame(CFA, -20)
          CFI (cfiCond169) R8H Frame(CFA, -18)
          CFI (cfiCond169) R9L Frame(CFA, -16)
          CFI (cfiCond169) R9H Frame(CFA, -14)
          CFI (cfiCond169) R10L Frame(CFA, -12)
          CFI (cfiCond169) R10H Frame(CFA, -10)
          CFI (cfiCond169) R11L Frame(CFA, -8)
          CFI (cfiCond169) R11H Frame(CFA, -6)
          CFI (cfiCond169) CFA SP+42
          CFI Block cfiCond170 Using cfiCommon0
          CFI (cfiCond170) Function MPU6050_Tim
          CFI (cfiCond170) Conditional ??CrossCallReturnLabel_8
          CFI (cfiCond170) R4L Frame(CFA, -36)
          CFI (cfiCond170) R4H Frame(CFA, -34)
          CFI (cfiCond170) R5L Frame(CFA, -32)
          CFI (cfiCond170) R5H Frame(CFA, -30)
          CFI (cfiCond170) R6L Frame(CFA, -28)
          CFI (cfiCond170) R6H Frame(CFA, -26)
          CFI (cfiCond170) R7L Frame(CFA, -24)
          CFI (cfiCond170) R7H Frame(CFA, -22)
          CFI (cfiCond170) R8L Frame(CFA, -20)
          CFI (cfiCond170) R8H Frame(CFA, -18)
          CFI (cfiCond170) R9L Frame(CFA, -16)
          CFI (cfiCond170) R9H Frame(CFA, -14)
          CFI (cfiCond170) R10L Frame(CFA, -12)
          CFI (cfiCond170) R10H Frame(CFA, -10)
          CFI (cfiCond170) R11L Frame(CFA, -8)
          CFI (cfiCond170) R11H Frame(CFA, -6)
          CFI (cfiCond170) CFA SP+42
          CFI Block cfiPicker171 Using cfiCommon1
          CFI (cfiPicker171) NoFunction
          CFI (cfiPicker171) Picker
        CALLA   #?Subroutine24
??CrossCallReturnLabel_32:
        MOV.W   #0xcccd, R14
        MOV.W   #0x411c, R15
          CFI (cfiCond168) FunCall MPU6050_Tim _Mul32f
          CFI (cfiCond168) FunCall MPU6050_Tim _Mul32f
          CFI (cfiCond168) FunCall MPU6050_Tim _Mul32f
        CALLA   #_Mul32f
        MOV.W   #0x0, R14
        MOV.W   #0x3900, R15
          CFI (cfiCond168) TailCall MPU6050_Tim _Mul32f
          CFI (cfiCond168) TailCall MPU6050_Tim _Mul32f
          CFI (cfiCond168) TailCall MPU6050_Tim _Mul32f
        BRA     #_Mul32f
          CFI EndBlock cfiCond168
          CFI EndBlock cfiCond169
          CFI EndBlock cfiCond170
          CFI EndBlock cfiPicker171

        RSEG `CODE`:CODE:REORDER:NOROOT(1)
?Subroutine24:
          CFI Block cfiCond172 Using cfiCommon0
          CFI Function MPU6050_Tim
          CFI Conditional ??CrossCallReturnLabel_33, ??CrossCallReturnLabel_27
          CFI R4L Frame(CFA, -36)
          CFI R4H Frame(CFA, -34)
          CFI R5L Frame(CFA, -32)
          CFI R5H Frame(CFA, -30)
          CFI R6L Frame(CFA, -28)
          CFI R6H Frame(CFA, -26)
          CFI R7L Frame(CFA, -24)
          CFI R7H Frame(CFA, -22)
          CFI R8L Frame(CFA, -20)
          CFI R8H Frame(CFA, -18)
          CFI R9L Frame(CFA, -16)
          CFI R9H Frame(CFA, -14)
          CFI R10L Frame(CFA, -12)
          CFI R10H Frame(CFA, -10)
          CFI R11L Frame(CFA, -8)
          CFI R11H Frame(CFA, -6)
          CFI CFA SP+46
          CFI Block cfiCond173 Using cfiCommon0
          CFI (cfiCond173) Function MPU6050_Tim
          CFI (cfiCond173) Conditional ??CrossCallReturnLabel_33, ??CrossCallReturnLabel_28
          CFI (cfiCond173) R4L Frame(CFA, -36)
          CFI (cfiCond173) R4H Frame(CFA, -34)
          CFI (cfiCond173) R5L Frame(CFA, -32)
          CFI (cfiCond173) R5H Frame(CFA, -30)
          CFI (cfiCond173) R6L Frame(CFA, -28)
          CFI (cfiCond173) R6H Frame(CFA, -26)
          CFI (cfiCond173) R7L Frame(CFA, -24)
          CFI (cfiCond173) R7H Frame(CFA, -22)
          CFI (cfiCond173) R8L Frame(CFA, -20)
          CFI (cfiCond173) R8H Frame(CFA, -18)
          CFI (cfiCond173) R9L Frame(CFA, -16)
          CFI (cfiCond173) R9H Frame(CFA, -14)
          CFI (cfiCond173) R10L Frame(CFA, -12)
          CFI (cfiCond173) R10H Frame(CFA, -10)
          CFI (cfiCond173) R11L Frame(CFA, -8)
          CFI (cfiCond173) R11H Frame(CFA, -6)
          CFI (cfiCond173) CFA SP+46
          CFI Block cfiCond174 Using cfiCommon0
          CFI (cfiCond174) Function MPU6050_Tim
          CFI (cfiCond174) Conditional ??CrossCallReturnLabel_33, ??CrossCallReturnLabel_29
          CFI (cfiCond174) R4L Frame(CFA, -36)
          CFI (cfiCond174) R4H Frame(CFA, -34)
          CFI (cfiCond174) R5L Frame(CFA, -32)
          CFI (cfiCond174) R5H Frame(CFA, -30)
          CFI (cfiCond174) R6L Frame(CFA, -28)
          CFI (cfiCond174) R6H Frame(CFA, -26)
          CFI (cfiCond174) R7L Frame(CFA, -24)
          CFI (cfiCond174) R7H Frame(CFA, -22)
          CFI (cfiCond174) R8L Frame(CFA, -20)
          CFI (cfiCond174) R8H Frame(CFA, -18)
          CFI (cfiCond174) R9L Frame(CFA, -16)
          CFI (cfiCond174) R9H Frame(CFA, -14)
          CFI (cfiCond174) R10L Frame(CFA, -12)
          CFI (cfiCond174) R10H Frame(CFA, -10)
          CFI (cfiCond174) R11L Frame(CFA, -8)
          CFI (cfiCond174) R11H Frame(CFA, -6)
          CFI (cfiCond174) CFA SP+46
          CFI Block cfiCond175 Using cfiCommon0
          CFI (cfiCond175) Function MPU6050_Tim
          CFI (cfiCond175) Conditional ??CrossCallReturnLabel_32, ??CrossCallReturnLabel_6
          CFI (cfiCond175) R4L Frame(CFA, -36)
          CFI (cfiCond175) R4H Frame(CFA, -34)
          CFI (cfiCond175) R5L Frame(CFA, -32)
          CFI (cfiCond175) R5H Frame(CFA, -30)
          CFI (cfiCond175) R6L Frame(CFA, -28)
          CFI (cfiCond175) R6H Frame(CFA, -26)
          CFI (cfiCond175) R7L Frame(CFA, -24)
          CFI (cfiCond175) R7H Frame(CFA, -22)
          CFI (cfiCond175) R8L Frame(CFA, -20)
          CFI (cfiCond175) R8H Frame(CFA, -18)
          CFI (cfiCond175) R9L Frame(CFA, -16)
          CFI (cfiCond175) R9H Frame(CFA, -14)
          CFI (cfiCond175) R10L Frame(CFA, -12)
          CFI (cfiCond175) R10H Frame(CFA, -10)
          CFI (cfiCond175) R11L Frame(CFA, -8)
          CFI (cfiCond175) R11H Frame(CFA, -6)
          CFI (cfiCond175) CFA SP+46
          CFI Block cfiCond176 Using cfiCommon0
          CFI (cfiCond176) Function MPU6050_Tim
          CFI (cfiCond176) Conditional ??CrossCallReturnLabel_32, ??CrossCallReturnLabel_7
          CFI (cfiCond176) R4L Frame(CFA, -36)
          CFI (cfiCond176) R4H Frame(CFA, -34)
          CFI (cfiCond176) R5L Frame(CFA, -32)
          CFI (cfiCond176) R5H Frame(CFA, -30)
          CFI (cfiCond176) R6L Frame(CFA, -28)
          CFI (cfiCond176) R6H Frame(CFA, -26)
          CFI (cfiCond176) R7L Frame(CFA, -24)
          CFI (cfiCond176) R7H Frame(CFA, -22)
          CFI (cfiCond176) R8L Frame(CFA, -20)
          CFI (cfiCond176) R8H Frame(CFA, -18)
          CFI (cfiCond176) R9L Frame(CFA, -16)
          CFI (cfiCond176) R9H Frame(CFA, -14)
          CFI (cfiCond176) R10L Frame(CFA, -12)
          CFI (cfiCond176) R10H Frame(CFA, -10)
          CFI (cfiCond176) R11L Frame(CFA, -8)
          CFI (cfiCond176) R11H Frame(CFA, -6)
          CFI (cfiCond176) CFA SP+46
          CFI Block cfiCond177 Using cfiCommon0
          CFI (cfiCond177) Function MPU6050_Tim
          CFI (cfiCond177) Conditional ??CrossCallReturnLabel_32, ??CrossCallReturnLabel_8
          CFI (cfiCond177) R4L Frame(CFA, -36)
          CFI (cfiCond177) R4H Frame(CFA, -34)
          CFI (cfiCond177) R5L Frame(CFA, -32)
          CFI (cfiCond177) R5H Frame(CFA, -30)
          CFI (cfiCond177) R6L Frame(CFA, -28)
          CFI (cfiCond177) R6H Frame(CFA, -26)
          CFI (cfiCond177) R7L Frame(CFA, -24)
          CFI (cfiCond177) R7H Frame(CFA, -22)
          CFI (cfiCond177) R8L Frame(CFA, -20)
          CFI (cfiCond177) R8H Frame(CFA, -18)
          CFI (cfiCond177) R9L Frame(CFA, -16)
          CFI (cfiCond177) R9H Frame(CFA, -14)
          CFI (cfiCond177) R10L Frame(CFA, -12)
          CFI (cfiCond177) R10H Frame(CFA, -10)
          CFI (cfiCond177) R11L Frame(CFA, -8)
          CFI (cfiCond177) R11H Frame(CFA, -6)
          CFI (cfiCond177) CFA SP+46
          CFI Block cfiPicker178 Using cfiCommon1
          CFI (cfiPicker178) NoFunction
          CFI (cfiPicker178) Picker
        RLA.W   R13
        SUBC.W  R13, R13
        XOR.W   #0xffff, R13
          CFI (cfiCond172) TailCall MPU6050_Tim _Cast32sto32f
          CFI (cfiCond172) TailCall MPU6050_Tim _Cast32sto32f
          CFI (cfiCond172) TailCall MPU6050_Tim _Cast32sto32f
          CFI (cfiCond172) TailCall MPU6050_Tim _Cast32sto32f
          CFI (cfiCond172) TailCall MPU6050_Tim _Cast32sto32f
          CFI (cfiCond172) TailCall MPU6050_Tim _Cast32sto32f
        BRA     #_Cast32sto32f
          CFI EndBlock cfiCond172
          CFI EndBlock cfiCond173
          CFI EndBlock cfiCond174
          CFI EndBlock cfiCond175
          CFI EndBlock cfiCond176
          CFI EndBlock cfiCond177
          CFI EndBlock cfiPicker178

        RSEG DATA20_ID:CONST:SORT:NOROOT(1)
`?<Initializer for Q_angle>`:
        DATA32
        DC32 3D4CCCCDH

        RSEG DATA20_ID:CONST:SORT:NOROOT(1)
`?<Initializer for Q_gyro>`:
        DATA32
        DC32 3D4CCCCDH

        RSEG DATA20_ID:CONST:SORT:NOROOT(1)
`?<Initializer for R_angle>`:
        DATA32
        DC32 3D75C28FH

        RSEG DATA20_ID:CONST:SORT:NOROOT(1)
`?<Initializer for dt>`:
        DATA32
        DC32 3C23D70AH

        RSEG DATA20_ID:CONST:SORT:NOROOT(0)
`?<Initializer for C_0>`:
        DATA8
        DC8 1

        RSEG DATA20_ID:CONST:SORT:NOROOT(1)
`?<Initializer for PP>`:
        DATA32
        DC32 3F800000H, 0H, 0H, 3F800000H

        RSEG `CODE`:CODE:REORDER:NOROOT(1)
?setjmp_save_r4:
        REQUIRE ?setjmp_r4
        REQUIRE ?longjmp_r4

        RSEG `CODE`:CODE:REORDER:NOROOT(1)
?setjmp_save_r5:
        REQUIRE ?setjmp_r5
        REQUIRE ?longjmp_r5

        END
// 
// 1 778 bytes in segment CODE
//     6 bytes in segment DATA16_AN
//    33 bytes in segment DATA20_I
//    33 bytes in segment DATA20_ID
//    96 bytes in segment DATA20_Z
// 
// 1 778 bytes of CODE  memory
//    33 bytes of CONST memory
//   129 bytes of DATA  memory (+ 6 bytes shared)
//
//Errors: none
//Warnings: none
