///////////////////////////////////////////////////////////////////////////////
//
// IAR C/C++ Compiler V7.10.1.973/W32 for MSP430          02/Aug/2021  17:19:19
// Copyright 1996-2017 IAR Systems AB.
// Standalone license - IAR Embedded Workbench for Texas Instruments MSP430
//
//    __rt_version  =  3
//    __double_size =  32
//    __reg_r4      =  free
//    __reg_r5      =  free
//    __pic         =  no
//    __core        =  430X
//    __data_model  =  large
//    __code_model  =  large
//    Source file   =  D:\Dev\IAR\5529_MPU6050\HardWare\oled\OLED.c
//    Command line  =  
//        -f C:\Users\Jeans\AppData\Local\Temp\EWA73B.tmp
//        (D:\Dev\IAR\5529_MPU6050\HardWare\oled\OLED.c -D NDEBUG -D RAM_VECTOR
//        -lC D:\Dev\IAR\5529_MPU6050\Release\List -lA
//        D:\Dev\IAR\5529_MPU6050\Release\List -o
//        D:\Dev\IAR\5529_MPU6050\Release\Obj --debug -D__MSP430F5529__ -e
//        --double=32 --dlib_config D:\Dev\IAR\430\lib\dlib\dl430xllfn.h -I
//        D:\Dev\IAR\5529_MPU6050\ -I D:\Dev\IAR\5529_MPU6050\Drivers\inc\ -I
//        D:\Dev\IAR\5529_MPU6050\Drivers\src\ -I
//        D:\Dev\IAR\5529_MPU6050\HardWare\ -I
//        D:\Dev\IAR\5529_MPU6050\HardWare\led\ -I
//        D:\Dev\IAR\5529_MPU6050\HardWare\key\ -I
//        D:\Dev\IAR\5529_MPU6050\HardWare\lcd\ -I
//        D:\Dev\IAR\5529_MPU6050\HardWare\lcd_api\ -I
//        D:\Dev\IAR\5529_MPU6050\HardWare\nrf24l01\ -I
//        D:\Dev\IAR\5529_MPU6050\HardWare\oled\ -I
//        D:\Dev\IAR\5529_MPU6050\HardWare\delay\ -I
//        D:\Dev\IAR\5529_MPU6050\HardWare\2.2TFT\ -I
//        D:\Dev\IAR\5529_MPU6050\System\ -I
//        D:\Dev\IAR\5529_MPU6050\System\inc\ -I
//        D:\Dev\IAR\5529_MPU6050\System\src\ -I D:\Dev\IAR\5529_MPU6050\User\
//        -I D:\Dev\IAR\5529_MPU6050\User\USER\ -I
//        D:\Dev\IAR\5529_MPU6050\HardWare\mpu6050\ --core=430X
//        --data_model=large -Oh --multiplier=32 --hw_workaround=CPU40
//        --hw_workaround=nop_after_lpm -DNDEBUG --code_model=large)
//    Locale        =  Chinese (Simplified)_CHN.936
//    List file     =  D:\Dev\IAR\5529_MPU6050\Release\List\OLED.s43
//
///////////////////////////////////////////////////////////////////////////////

        NAME OLED

        RTMODEL "__SystemLibrary", "DLib"
        RTMODEL "__code_model", "large"
        RTMODEL "__core", "430X"
        RTMODEL "__data_model", "large"
        RTMODEL "__dlib_file_descriptor", "0"
        RTMODEL "__double_size", "32"
        RTMODEL "__iar_require _Printf", "unknown"
        RTMODEL "__pic", "no"
        RTMODEL "__reg_r4", "free"
        RTMODEL "__reg_r5", "free"
        RTMODEL "__rt_version", "3"

        RSEG CSTACK:DATA:SORT:NOROOT(0)

        EXTERN ?ShiftLeft32_7
        EXTERN __iar_HWMUL
        EXTERN ?DivMod16s
        EXTERN ?DivMod32u
        EXTERN ?CopyMemoryWords20
        EXTERN ?FLT_LT
        EXTERN _Add32f
        EXTERN _Mul32f
        EXTERN ?FLT_GE
        EXTERN _Div32f
        EXTERN _Cast32fto32s
        EXTERN _Cast32sto32f
        EXTERN _Cast32uto32f
        EXTERN _Sub32f
        EXTERN ?cstart_init_copy20
        EXTERN ?cstart_init_zero20
        EXTERN ?longjmp_r4
        EXTERN ?longjmp_r5
        EXTERN ?setjmp_r4
        EXTERN ?setjmp_r5

        PUBWEAK ?setjmp_save_r4
        PUBWEAK ?setjmp_save_r5
        PUBLIC ASCII_6X8
        PUBLIC ASCII_8X16
        PUBLIC CHINESE_16X16
        PUBLIC FONT_CHINESE_TABLE
        PUBLIC OLED_Clear
        PUBLIC OLED_DispChar
        PUBLIC OLED_DispChineseAt
        PUBLIC OLED_DispDecAt
        PUBLIC OLED_DispFolatAt
        PUBLIC OLED_DispStringAt
        PUBLIC OLED_DispStringAtCEOL
        PUBLIC OLED_DispStringLen
        PUBLIC OLED_DrawPoint
        PUBLIC OLED_FillPart
        PUBLIC OLED_FillRect
        PUBLIC OLED_Init
        PUBLIC OLED_PORT_Init
        PUBLIC OLED_Printf
        PUBLIC OLED_PrintfAt
        PUBLIC OLED_WriteByte
        PUBWEAK _A_PBOUT_L
        PUBWEAK _A_PDOUT_L
        
          CFI Names cfiNames0
          CFI StackFrame CFA SP DATA
          CFI Resource PC:20, SP:20, SR:16, R4L:16, R4H:4, R4:20, R5L:16, R5H:4
          CFI Resource R5:20, R6L:16, R6H:4, R6:20, R7L:16, R7H:4, R7:20, R8L:16
          CFI Resource R8H:4, R8:20, R9L:16, R9H:4, R9:20, R10L:16, R10H:4
          CFI Resource R10:20, R11L:16, R11H:4, R11:20, R12L:16, R12H:4, R12:20
          CFI Resource R13L:16, R13H:4, R13:20, R14L:16, R14H:4, R14:20, R15L:16
          CFI Resource R15H:4, R15:20
          CFI ResourceParts R4 R4H, R4L
          CFI ResourceParts R5 R5H, R5L
          CFI ResourceParts R6 R6H, R6L
          CFI ResourceParts R7 R7H, R7L
          CFI ResourceParts R8 R8H, R8L
          CFI ResourceParts R9 R9H, R9L
          CFI ResourceParts R10 R10H, R10L
          CFI ResourceParts R11 R11H, R11L
          CFI ResourceParts R12 R12H, R12L
          CFI ResourceParts R13 R13H, R13L
          CFI ResourceParts R14 R14H, R14L
          CFI ResourceParts R15 R15H, R15L
          CFI EndNames cfiNames0
        
          CFI Common cfiCommon0 Using cfiNames0
          CFI CodeAlign 2
          CFI DataAlign 2
          CFI ReturnAddress PC CODE
          CFI CFA SP+4
          CFI PC Frame(CFA, -4)
          CFI SR Undefined
          CFI R4L SameValue
          CFI R4H SameValue
          CFI R4 Concat
          CFI R5L SameValue
          CFI R5H SameValue
          CFI R5 Concat
          CFI R6L SameValue
          CFI R6H SameValue
          CFI R6 Concat
          CFI R7L SameValue
          CFI R7H SameValue
          CFI R7 Concat
          CFI R8L SameValue
          CFI R8H SameValue
          CFI R8 Concat
          CFI R9L SameValue
          CFI R9H SameValue
          CFI R9 Concat
          CFI R10L SameValue
          CFI R10H SameValue
          CFI R10 Concat
          CFI R11L SameValue
          CFI R11H SameValue
          CFI R11 Concat
          CFI R12L Undefined
          CFI R12H Undefined
          CFI R12 Undefined
          CFI R13L Undefined
          CFI R13H Undefined
          CFI R13 Undefined
          CFI R14L Undefined
          CFI R14H Undefined
          CFI R14 Undefined
          CFI R15L Undefined
          CFI R15H Undefined
          CFI R15 Undefined
          CFI EndCommon cfiCommon0
        
        
          CFI Common cfiCommon1 Using cfiNames0
          CFI CodeAlign 2
          CFI DataAlign 2
          CFI ReturnAddress PC CODE
          CFI CFA SP+4
          CFI PC Frame(CFA, -4)
          CFI SR Undefined
          CFI R4L SameValue
          CFI R4H SameValue
          CFI R4 Concat
          CFI R5L SameValue
          CFI R5H SameValue
          CFI R5 Concat
          CFI R6L SameValue
          CFI R6H SameValue
          CFI R6 Concat
          CFI R7L SameValue
          CFI R7H SameValue
          CFI R7 Concat
          CFI R8L SameValue
          CFI R8H SameValue
          CFI R8 Concat
          CFI R9L SameValue
          CFI R9H SameValue
          CFI R9 Concat
          CFI R10L SameValue
          CFI R10H SameValue
          CFI R10 Concat
          CFI R11L SameValue
          CFI R11H SameValue
          CFI R11 Concat
          CFI R12L SameValue
          CFI R12H SameValue
          CFI R12 Concat
          CFI R13L SameValue
          CFI R13H SameValue
          CFI R13 Concat
          CFI R14L SameValue
          CFI R14H SameValue
          CFI R14 Concat
          CFI R15L SameValue
          CFI R15H SameValue
          CFI R15 Concat
          CFI EndCommon cfiCommon1
        
        EXTERN SPI_Master_Init
        EXTERN GPIO_MultiBits_Init
        EXTERN SPI_SendReadByte
        EXTERN vsprintf
        EXTERN strlen

// D:\Dev\IAR\5529_MPU6050\HardWare\oled\OLED.c
//    1 #include "oled.h"

        ASEGN DATA16_AN:DATA:NOROOT,0222H
// union <unnamed> __data16 _A_PBOUT_L
_A_PBOUT_L:
        DS8 2

        ASEGN DATA16_AN:DATA:NOROOT,0262H
// union <unnamed> __data16 _A_PDOUT_L
_A_PDOUT_L:
        DS8 2

        RSEG DATA20_C:CONST:SORT:NOROOT(0)
`?<Constant "\\310\\375">`:
        DC8 "\310\375"

        RSEG DATA20_C:CONST:SORT:NOROOT(0)
`?<Constant "\\317\\277">`:
        DC8 "\317\277"

        RSEG DATA20_C:CONST:SORT:NOROOT(0)
`?<Constant "\\264\\363">`:
        DC8 "\264\363"

        RSEG DATA20_C:CONST:SORT:NOROOT(0)
`?<Constant "\\321\\247">`:
        DC8 "\321\247"

        RSEG DATA20_C:CONST:SORT:NOROOT(0)
`?<Constant "\\267\\311">`:
        DC8 "\267\311"

        RSEG DATA20_C:CONST:SORT:NOROOT(0)
`?<Constant "\\313\\274">`:
        DC8 "\313\274"

        RSEG DATA20_C:CONST:SORT:NOROOT(0)
`?<Constant "\\277\\250">`:
        DC8 "\277\250"

        RSEG DATA20_C:CONST:SORT:NOROOT(0)
`?<Constant "\\266\\373">`:
        DC8 "\266\373"
//    2 #include "oled_font.h"

        RSEG DATA20_C:CONST:SORT:NOROOT(0)
// unsigned char const ASCII_6X8[95][6]
ASCII_6X8:
        DATA8
        DC8 0, 0, 0, 0, 0, 0, 0, 0, 0, 47, 0, 0, 0, 0, 7, 0, 7, 0, 0, 20, 127
        DC8 20, 127, 20, 0, 36, 42, 127, 42, 18, 0, 98, 100, 8, 19, 35, 0, 54
        DC8 73, 85, 34, 80, 0, 0, 5, 3, 0, 0, 0, 0, 28, 34, 65, 0, 0, 0, 65, 34
        DC8 28, 0, 0, 20, 8, 62, 8, 20, 0, 8, 8, 62, 8, 8, 0, 0, 0, 160, 96, 0
        DC8 0, 8, 8, 8, 8, 8, 0, 0, 96, 96, 0, 0, 0, 32, 16, 8, 4, 2, 0, 62, 81
        DC8 73, 69, 62, 0, 0, 66, 127, 64, 0, 0, 66, 97, 81, 73, 70, 0, 33, 65
        DC8 69, 75, 49, 0, 24, 20, 18, 127, 16, 0, 39, 69, 69, 69, 57, 0, 60
        DC8 74, 73, 73, 48, 0, 1, 113, 9, 5, 3, 0, 54, 73, 73, 73, 54, 0, 6, 73
        DC8 73, 41, 30, 0, 0, 54, 54, 0, 0, 0, 0, 86, 54, 0, 0, 0, 8, 20, 34
        DC8 65, 0, 0, 20, 20, 20, 20, 20, 0, 0, 65, 34, 20, 8, 0, 2, 1, 81, 9
        DC8 6, 0, 50, 73, 89, 81, 62, 0, 124, 18, 17, 18, 124, 0, 127, 73, 73
        DC8 73, 54, 0, 62, 65, 65, 65, 34, 0, 127, 65, 65, 34, 28, 0, 127, 73
        DC8 73, 73, 65, 0, 127, 9, 9, 9, 1, 0, 62, 65, 73, 73, 122, 0, 127, 8
        DC8 8, 8, 127, 0, 0, 65, 127, 65, 0, 0, 32, 64, 65, 63, 1, 0, 127, 8
        DC8 20, 34, 65, 0, 127, 64, 64, 64, 64, 0, 127, 2, 12, 2, 127, 0, 127
        DC8 4, 8, 16, 127, 0, 62, 65, 65, 65, 62, 0, 127, 9, 9, 9, 6, 0, 62, 65
        DC8 81, 33, 94, 0, 127, 9, 25, 41, 70, 0, 70, 73, 73, 73, 49, 0, 1, 1
        DC8 127, 1, 1, 0, 63, 64, 64, 64, 63, 0, 31, 32, 64, 32, 31, 0, 63, 64
        DC8 56, 64, 63, 0, 99, 20, 8, 20, 99, 0, 7, 8, 112, 8, 7, 0, 97, 81, 73
        DC8 69, 67, 0, 0, 127, 65, 65, 0, 0, 85, 42, 85, 42, 85, 0, 0, 65, 65
        DC8 127, 0, 0, 4, 2, 1, 2, 4, 0, 64, 64, 64, 64, 64, 0, 0, 1, 2, 4, 0
        DC8 0, 32, 84, 84, 84, 120, 0, 127, 72, 68, 68, 56, 0, 56, 68, 68, 68
        DC8 32, 0, 56, 68, 68, 72, 127, 0, 56, 84, 84, 84, 24, 0, 8, 126, 9, 1
        DC8 2, 0, 24, 164, 164, 164, 124, 0, 127, 8, 4, 4, 120, 0, 0, 68, 125
        DC8 64, 0, 0, 64, 128, 132, 125, 0, 0, 127, 16, 40, 68, 0, 0, 0, 65
        DC8 127, 64, 0, 0, 124, 4, 24, 4, 120, 0, 124, 8, 4, 4, 120, 0, 56, 68
        DC8 68, 68, 56, 0, 252, 36, 36, 36, 24, 0, 24, 36, 36, 24, 252, 0, 124
        DC8 8, 4, 4, 8, 0, 72, 84, 84, 84, 32, 0, 4, 63, 68, 64, 32, 0, 60, 64
        DC8 64, 32, 124, 0, 28, 32, 64, 32, 28, 0, 60, 64, 48, 64, 60, 0, 68
        DC8 40, 16, 40, 68, 0, 28, 160, 160, 160, 124, 0, 68, 100, 84, 76, 68
        DC8 0, 0, 8, 118, 66, 0, 0, 0, 0, 126, 0, 0, 0, 0, 66, 118, 8, 0, 0, 4
        DC8 2, 4, 2, 1

        RSEG DATA20_C:CONST:SORT:NOROOT(0)
// unsigned char const ASCII_8X16[95][16]
ASCII_8X16:
        DATA8
        DC8 0, 0, 0, 0, 0, 0, 0, 0, 0, 0, 0, 0, 0, 0, 0, 0, 0, 0, 0, 248, 0, 0
        DC8 0, 0, 0, 0, 0, 51, 48, 0, 0, 0, 0, 16, 12, 6, 16, 12, 6, 0, 0, 0, 0
        DC8 0, 0, 0, 0, 0, 64, 192, 120, 64, 192, 120, 64, 0, 4, 63, 4, 4, 63
        DC8 4, 4, 0, 0, 112, 136, 252, 8, 48, 0, 0, 0, 24, 32, 255, 33, 30, 0
        DC8 0, 240, 8, 240, 0, 224, 24, 0, 0, 0, 33, 28, 3, 30, 33, 30, 0, 0
        DC8 240, 8, 136, 112, 0, 0, 0, 30, 33, 35, 36, 25, 39, 33, 16, 16, 22
        DC8 14, 0, 0, 0, 0, 0, 0, 0, 0, 0, 0, 0, 0, 0, 0, 0, 0, 224, 24, 4, 2
        DC8 0, 0, 0, 0, 7, 24, 32, 64, 0, 0, 2, 4, 24, 224, 0, 0, 0, 0, 64, 32
        DC8 24, 7, 0, 0, 0, 64, 64, 128, 240, 128, 64, 64, 0, 2, 2, 1, 15, 1, 2
        DC8 2, 0, 0, 0, 0, 240, 0, 0, 0, 0, 1, 1, 1, 31, 1, 1, 1, 0, 0, 0, 0, 0
        DC8 0, 0, 0, 0, 128, 176, 112, 0, 0, 0, 0, 0, 0, 0, 0, 0, 0, 0, 0, 0, 0
        DC8 1, 1, 1, 1, 1, 1, 1, 0, 0, 0, 0, 0, 0, 0, 0, 0, 48, 48, 0, 0, 0, 0
        DC8 0, 0, 0, 0, 0, 128, 96, 24, 4, 0, 96, 24, 6, 1, 0, 0, 0, 0, 224, 16
        DC8 8, 8, 16, 224, 0, 0, 15, 16, 32, 32, 16, 15, 0, 0, 16, 16, 248, 0
        DC8 0, 0, 0, 0, 32, 32, 63, 32, 32, 0, 0, 0, 112, 8, 8, 8, 136, 112, 0
        DC8 0, 48, 40, 36, 34, 33, 48, 0, 0, 48, 8, 136, 136, 72, 48, 0, 0, 24
        DC8 32, 32, 32, 17, 14, 0, 0, 0, 192, 32, 16, 248, 0, 0, 0, 7, 4, 36
        DC8 36, 63, 36, 0, 0, 248, 8, 136, 136, 8, 8, 0, 0, 25, 33, 32, 32, 17
        DC8 14, 0, 0, 224, 16, 136, 136, 24, 0, 0, 0, 15, 17, 32, 32, 17, 14, 0
        DC8 0, 56, 8, 8, 200, 56, 8, 0, 0, 0, 0, 63, 0, 0, 0, 0, 0, 112, 136, 8
        DC8 8, 136, 112, 0, 0, 28, 34, 33, 33, 34, 28, 0, 0, 224, 16, 8, 8, 16
        DC8 224, 0, 0, 0, 49, 34, 34, 17, 15, 0, 0, 0, 0, 192, 192, 0, 0, 0, 0
        DC8 0, 0, 48, 48, 0, 0, 0, 0, 0, 0, 128, 0, 0, 0, 0, 0, 0, 128, 96, 0
        DC8 0, 0, 0, 0, 0, 128, 64, 32, 16, 8, 0, 0, 1, 2, 4, 8, 16, 32, 0, 64
        DC8 64, 64, 64, 64, 64, 64, 0, 4, 4, 4, 4, 4, 4, 4, 0, 0, 8, 16, 32, 64
        DC8 128, 0, 0, 0, 32, 16, 8, 4, 2, 1, 0, 0, 112, 72, 8, 8, 8, 240, 0, 0
        DC8 0, 0, 48, 54, 1, 0, 0, 192, 48, 200, 40, 232, 16, 224, 0, 7, 24, 39
        DC8 36, 35, 20, 11, 0, 0, 0, 192, 56, 224, 0, 0, 0, 32, 60, 35, 2, 2
        DC8 39, 56, 32, 8, 248, 136, 136, 136, 112, 0, 0, 32, 63, 32, 32, 32
        DC8 17, 14, 0, 192, 48, 8, 8, 8, 8, 56, 0, 7, 24, 32, 32, 32, 16, 8, 0
        DC8 8, 248, 8, 8, 8, 16, 224, 0, 32, 63, 32, 32, 32, 16, 15, 0, 8, 248
        DC8 136, 136, 232, 8, 16, 0, 32, 63, 32, 32, 35, 32, 24, 0, 8, 248, 136
        DC8 136, 232, 8, 16, 0, 32, 63, 32, 0, 3, 0, 0, 0, 192, 48, 8, 8, 8, 56
        DC8 0, 0, 7, 24, 32, 32, 34, 30, 2, 0, 8, 248, 8, 0, 0, 8, 248, 8, 32
        DC8 63, 33, 1, 1, 33, 63, 32, 0, 8, 8, 248, 8, 8, 0, 0, 0, 32, 32, 63
        DC8 32, 32, 0, 0, 0, 0, 8, 8, 248, 8, 8, 0, 192, 128, 128, 128, 127, 0
        DC8 0, 0, 8, 248, 136, 192, 40, 24, 8, 0, 32, 63, 32, 1, 38, 56, 32, 0
        DC8 8, 248, 8, 0, 0, 0, 0, 0, 32, 63, 32, 32, 32, 32, 48, 0, 8, 248
        DC8 248, 0, 248, 248, 8, 0, 32, 63, 0, 63, 0, 63, 32, 0, 8, 248, 48
        DC8 192, 0, 8, 248, 8, 32, 63, 32, 0, 7, 24, 63, 0, 224, 16, 8, 8, 8
        DC8 16, 224, 0, 15, 16, 32, 32, 32, 16, 15, 0, 8, 248, 8, 8, 8, 8, 240
        DC8 0, 32, 63, 33, 1, 1, 1, 0, 0, 224, 16, 8, 8, 8, 16, 224, 0, 15, 24
        DC8 36, 36, 56, 80, 79, 0, 8, 248, 136, 136, 136, 136, 112, 0, 32, 63
        DC8 32, 0, 3, 12, 48, 32, 0, 112, 136, 8, 8, 8, 56, 0, 0, 56, 32, 33
        DC8 33, 34, 28, 0, 24, 8, 8, 248, 8, 8, 24, 0, 0, 0, 32, 63, 32, 0, 0
        DC8 0, 8, 248, 8, 0, 0, 8, 248, 8, 0, 31, 32, 32, 32, 32, 31, 0, 8, 120
        DC8 136, 0, 0, 200, 56, 8, 0, 0, 7, 56, 14, 1, 0, 0, 248, 8, 0, 248, 0
        DC8 8, 248, 0, 3, 60, 7, 0, 7, 60, 3, 0, 8, 24, 104, 128, 128, 104, 24
        DC8 8, 32, 48, 44, 3, 3, 44, 48, 32, 8, 56, 200, 0, 200, 56, 8, 0, 0, 0
        DC8 32, 63, 32, 0, 0, 0, 16, 8, 8, 8, 200, 56, 8, 0, 32, 56, 38, 33, 32
        DC8 32, 24, 0, 0, 0, 0, 254, 2, 2, 2, 0, 0, 0, 0, 127, 64, 64, 64, 0, 0
        DC8 12, 48, 192, 0, 0, 0, 0, 0, 0, 0, 1, 6, 56, 192, 0, 0, 2, 2, 2, 254
        DC8 0, 0, 0, 0, 64, 64, 64, 127, 0, 0, 0, 0, 0, 4, 2, 2, 2, 4, 0, 0, 0
        DC8 0, 0, 0, 0, 0, 0, 0, 0, 0, 0, 0, 0, 0, 0, 128, 128, 128, 128, 128
        DC8 128, 128, 128, 0, 2, 2, 4, 0, 0, 0, 0, 0, 0, 0, 0, 0, 0, 0, 0, 0, 0
        DC8 128, 128, 128, 128, 0, 0, 0, 25, 36, 34, 34, 34, 63, 32, 8, 248, 0
        DC8 128, 128, 0, 0, 0, 0, 63, 17, 32, 32, 17, 14, 0, 0, 0, 0, 128, 128
        DC8 128, 0, 0, 0, 14, 17, 32, 32, 32, 17, 0, 0, 0, 0, 128, 128, 136
        DC8 248, 0, 0, 14, 17, 32, 32, 16, 63, 32, 0, 0, 128, 128, 128, 128, 0
        DC8 0, 0, 31, 34, 34, 34, 34, 19, 0, 0, 128, 128, 240, 136, 136, 136
        DC8 24, 0, 32, 32, 63, 32, 32, 0, 0, 0, 0, 128, 128, 128, 128, 128, 0
        DC8 0, 107, 148, 148, 148, 147, 96, 0, 8, 248, 0, 128, 128, 128, 0, 0
        DC8 32, 63, 33, 0, 0, 32, 63, 32, 0, 128, 152, 152, 0, 0, 0, 0, 0, 32
        DC8 32, 63, 32, 32, 0, 0, 0, 0, 0, 128, 152, 152, 0, 0, 0, 192, 128
        DC8 128, 128, 127, 0, 0, 8, 248, 0, 0, 128, 128, 128, 0, 32, 63, 36, 2
        DC8 45, 48, 32, 0, 0, 8, 8, 248, 0, 0, 0, 0, 0, 32, 32, 63, 32, 32, 0
        DC8 0, 128, 128, 128, 128, 128, 128, 128, 0, 32, 63, 32, 0, 63, 32, 0
        DC8 63, 128, 128, 0, 128, 128, 128, 0, 0, 32, 63, 33, 0, 0, 32, 63, 32
        DC8 0, 0, 128, 128, 128, 128, 0, 0, 0, 31, 32, 32, 32, 32, 31, 0, 128
        DC8 128, 0, 128, 128, 0, 0, 0, 128, 255, 161, 32, 32, 17, 14, 0, 0, 0
        DC8 0, 128, 128, 128, 128, 0, 0, 14, 17, 32, 32, 160, 255, 128, 128
        DC8 128, 128, 0, 128, 128, 128, 0, 32, 32, 63, 33, 32, 0, 1, 0, 0, 0
        DC8 128, 128, 128, 128, 128, 0, 0, 51, 36, 36, 36, 36, 25, 0, 0, 128
        DC8 128, 224, 128, 128, 0, 0, 0, 0, 0, 31, 32, 32, 0, 0, 128, 128, 0, 0
        DC8 0, 128, 128, 0, 0, 31, 32, 32, 32, 16, 63, 32, 128, 128, 128, 0, 0
        DC8 128, 128, 128, 0, 1, 14, 48, 8, 6, 1, 0, 128, 128, 0, 128, 0, 128
        DC8 128, 128, 15, 48, 12, 3, 12, 48, 15, 0, 0, 128, 128, 0, 128, 128
        DC8 128, 0, 0, 32, 49, 46, 14, 49, 32, 0, 128, 128, 128, 0, 0, 128, 128
        DC8 128, 128, 129, 142, 112, 24, 6, 1, 0, 0, 128, 128, 128, 128, 128
        DC8 128, 0, 0, 33, 48, 44, 34, 33, 48, 0, 0, 0, 0, 0, 128, 124, 2, 2, 0
        DC8 0, 0, 0, 0, 63, 64, 64, 0, 0, 0, 0, 255, 0, 0, 0, 0, 0, 0, 0, 255
        DC8 0, 0, 0, 0, 2, 2, 124, 128, 0, 0, 0, 0, 64, 64, 63, 0, 0, 0, 0, 0
        DC8 6, 1, 1, 2, 2, 4, 4, 0, 0, 0, 0, 0, 0, 0, 0
//    3 #include "oled_font_chinese.h"

        RSEG DATA20_C:CONST:SORT:NOROOT(0)
// unsigned char const CHINESE_16X16[8][32]
CHINESE_16X16:
        DATA8
        DC8 0, 0, 0, 136, 136, 136, 136, 136, 136, 140, 132, 140, 8, 0, 0, 0, 0
        DC8 16, 16, 16, 16, 16, 16, 16, 16, 16, 16, 16, 16, 16, 0, 0, 0, 224
        DC8 226, 254, 252, 240, 80, 208, 254, 254, 242, 240, 80, 0, 0, 0, 0, 7
        DC8 7, 71, 103, 119, 58, 31, 7, 7, 29, 57, 97, 97, 64, 0, 0, 64, 64, 64
        DC8 64, 64, 240, 254, 222, 64, 64, 96, 96, 64, 0, 0, 0, 64, 96, 48, 28
        DC8 15, 7, 1, 3, 15, 60, 48, 32, 32, 32, 0, 0, 64, 112, 180, 188, 184
        DC8 166, 174, 184, 252, 254, 114, 112, 16, 0, 0, 0, 4, 4, 4, 20, 52, 39
        DC8 63, 63, 2, 2, 2, 2, 2, 0, 0, 0, 8, 8, 8, 12, 12, 4, 252, 252, 224
        DC8 184, 152, 0, 0, 0, 0, 0, 0, 0, 0, 0, 0, 0, 3, 15, 28, 56, 48, 60
        DC8 60, 0, 0, 0, 0, 0, 254, 254, 164, 180, 252, 252, 244, 254, 254, 0
        DC8 0, 0, 0, 0, 16, 28, 14, 14, 28, 59, 55, 38, 56, 58, 38, 14, 12, 0
        DC8 0, 0, 128, 128, 128, 128, 128, 254, 254, 146, 144, 216, 88, 64, 192
        DC8 0, 0, 0, 0, 0, 0, 0, 0, 63, 63, 3, 2, 6, 4, 0, 0, 0, 0, 0, 0, 192
        DC8 224, 248, 158, 22, 242, 240, 144, 112, 120, 24, 16, 0, 0, 0, 17, 25
        DC8 14, 7, 19, 49, 63, 63, 1, 3, 7, 6, 4, 0, 0

        RSEG DATA20_I:DATA:SORT:NOROOT(1)
        REQUIRE ?cstart_init_copy20
// unsigned char const *__data20 FONT_CHINESE_TABLE[8]
FONT_CHINESE_TABLE:
        DS8 32
        REQUIRE `?<Initializer for FONT_CHINESE_TABLE>`
//    4 #include <stdarg.h>
//    5 #include <string.h>
//    6 #include <stdio.h>
//    7 typedef enum
//    8 {
//    9   CMD   =0u,//命令时为低电平
//   10   DATA  =1u,//数据时为高电平
//   11 }CMD_OR_DATA;
//   12 static const struct{
//   13   uint8_t width;
//   14   uint8_t height;
//   15   const unsigned char *pData;

        RSEG DATA20_C:CONST:SORT:NOROOT(1)
//   16 }Font[] =
Font:
        DATA8
        DC8 6, 8
        DATA32
        DC32 ASCII_6X8
        DATA8
        DC8 8, 16
        DATA32
        DC32 ASCII_8X16
        DATA8
        DC8 16, 16
        DATA32
        DC32 CHINESE_16X16
//   17 {
//   18   {.width=6,.height= 8,.pData= &ASCII_6X8[0][0]},
//   19   {.width=8,.height=16,.pData=&ASCII_8X16[0][0]},
//   20   {.width=16,.height=16,.pData=&CHINESE_16X16[0][0]},
//   21 };
//   22 #ifdef OLED_RAM //开启显存

        RSEG DATA20_Z:DATA:SORT:NOROOT(0)
        REQUIRE ?cstart_init_zero20
//   23 static uint8_t OLED_RAM_DATA[(OLED_HEIGHT/8)][OLED_WIDTH] ={0}; //显存
OLED_RAM_DATA:
        DS8 1024

        RSEG DATA20_Z:DATA:SORT:NOROOT(0)
        REQUIRE ?cstart_init_zero20
//   24 static uint8_t line_position = 0,row_position = 0;   //光标位置
line_position:
        DS8 1

        RSEG DATA20_Z:DATA:SORT:NOROOT(0)
        REQUIRE ?cstart_init_zero20
row_position:
        DS8 1
//   25 #endif
//   26 static void OLED_SetPosition(uint8_t line,uint8_t x);                              //设置坐标
//   27 /*******************************************************************************
//   28 *  函数名称：OLED_PORT_Init(void)
//   29 *  功能说明：OLED端口初始化程序
//   30 *  参数说明：无
//   31 *  函数返回：无
//   32 *  使用示例：
//   33 ********************************************************************************/

        RSEG `CODE`:CODE:REORDER:NOROOT(1)
//   34 void OLED_PORT_Init(void)
OLED_PORT_Init:
          CFI Block cfiBlock0 Using cfiCommon0
          CFI Function OLED_PORT_Init
          CFI NoCalls
//   35 {
//   36 #if(OLEDHardWareSPI)
//   37   OLEDHardWareSPI_Init();
        PUSH.B  #0x3
          CFI CFA SP+6
        PUSH.B  #0x0
          CFI CFA SP+8
        CALLA   #?Subroutine4
//   38 #else
//   39   GPIO_Init(OLED_SCL_PORT,OLED_SCL_PIN,GPO);
//   40   GPIO_Init(OLED_SDA_PORT,OLED_SDA_PIN,GPO);
//   41 #endif
//   42   GPIO_Init(OLED_RST_PORT,OLED_RST_PIN,GPO);
??CrossCallReturnLabel_7:
        CALLA   #?Subroutine2
//   43   GPIO_Init(OLED_DC_PORT ,OLED_DC_PIN ,GPO);
//   44 }
??CrossCallReturnLabel_5:
        ADDA    #0x4, SP
          CFI CFA SP+4
        RETA
          CFI EndBlock cfiBlock0

        RSEG `CODE`:CODE:REORDER:NOROOT(1)
?Subroutine4:
          CFI Block cfiCond1 Using cfiCommon0
          CFI Function OLED_PORT_Init
          CFI Conditional ??CrossCallReturnLabel_7
          CFI CFA SP+12
          CFI Block cfiCond2 Using cfiCommon0
          CFI (cfiCond2) Function OLED_Init
          CFI (cfiCond2) Conditional ??CrossCallReturnLabel_6
          CFI (cfiCond2) R10L Frame(CFA, -8)
          CFI (cfiCond2) R10H Frame(CFA, -6)
          CFI (cfiCond2) CFA SP+16
          CFI Block cfiPicker3 Using cfiCommon1
          CFI (cfiPicker3) NoFunction
          CFI (cfiPicker3) Picker
        MOV.B   #0x1, R13
        MOV.W   #0x9680, R14
        MOV.W   #0x98, R15
        MOV.B   #0x3, R12
          CFI (cfiCond1) TailCall OLED_PORT_Init SPI_Master_Init
          CFI (cfiCond2) TailCall OLED_Init SPI_Master_Init
        BRA     #SPI_Master_Init
          CFI EndBlock cfiCond1
          CFI EndBlock cfiCond2
          CFI EndBlock cfiPicker3

        RSEG `CODE`:CODE:REORDER:NOROOT(1)
?Subroutine2:
          CFI Block cfiCond4 Using cfiCommon0
          CFI Function OLED_PORT_Init
          CFI Conditional ??CrossCallReturnLabel_5
          CFI CFA SP+12
          CFI Block cfiCond5 Using cfiCommon0
          CFI (cfiCond5) Function OLED_Init
          CFI (cfiCond5) Conditional ??CrossCallReturnLabel_4
          CFI (cfiCond5) R10L Frame(CFA, -8)
          CFI (cfiCond5) R10H Frame(CFA, -6)
          CFI (cfiCond5) CFA SP+16
          CFI Block cfiPicker6 Using cfiCommon1
          CFI (cfiPicker6) NoFunction
          CFI (cfiPicker6) Picker
        MOV.W   #0x2, R14
        MOV.W   #0x80, R13
        MOV.B   #0x2, R12
          CFI (cfiCond4) FunCall OLED_PORT_Init GPIO_MultiBits_Init
          CFI (cfiCond5) FunCall OLED_Init GPIO_MultiBits_Init
        CALLA   #GPIO_MultiBits_Init
        MOV.W   #0x2, R14
        MOV.W   #0x4, R13
        MOV.B   #0x7, R12
          CFI (cfiCond4) TailCall OLED_PORT_Init GPIO_MultiBits_Init
          CFI (cfiCond5) TailCall OLED_Init GPIO_MultiBits_Init
        BRA     #GPIO_MultiBits_Init
          CFI EndBlock cfiCond4
          CFI EndBlock cfiCond5
          CFI EndBlock cfiPicker6
//   45 /*******************************************************************************
//   46 *  函数名称：OLED_WriteByte(CMD_OR_DATA DCvalue,uint8_t data)
//   47 *  功能说明：OLED发送一字节数据
//   48 *  参数说明：CMD_OR_DATA DCvalue：命令或数据
//   49              uint8_t data       ：发送的数据
//   50 *  函数返回：无
//   51 *  使用示例：
//   52 ********************************************************************************/

        RSEG `CODE`:CODE:REORDER:NOROOT(1)
//   53 void OLED_WriteByte(CMD_OR_DATA DCvalue,uint8_t data)
OLED_WriteByte:
          CFI Block cfiBlock7 Using cfiCommon0
          CFI Function OLED_WriteByte
//   54 {
        MOV.B   R13, R14
//   55   uint8_t i;
//   56   OLED_DC = DCvalue; //DCvalue是1DC就为1 不是1DC就为0  1是数据 0是命?
        BIT.B   #0x1, R12
        JNE     ??OLED_WriteByte_0
        BIC.B   #0x4, &0x263
        JMP     ??OLED_WriteByte_3
??OLED_WriteByte_0:
        BIS.B   #0x4, &0x263
//   57 #ifdef OLED_RAM //如果开启显存
//   58   if(DCvalue == DATA) //发送数据时更新
??OLED_WriteByte_3:
        MOVX.B  &row_position, R15
        CMP.B   #0x1, R12
        JNE     ??OLED_WriteByte_1
//   59   {
//   60     OLED_RAM_DATA[line_position][row_position++] = data;
        CALLA   #?Subroutine23
//   61     if(row_position > 127)
//   62     {
//   63       row_position = 0;
//   64       line_position ++;
//   65     }
//   66   }
??CrossCallReturnLabel_61:
        PUSHM.W #0x2, R13
          CFI CFA SP+8
        POPM.A  #0x1, R13
          CFI CFA SP+4
        CALLA   #?Subroutine22
??OLED_WriteByte_1:
        MOVX.B  R15, &row_position
//   67 #endif
//   68 #if(OLEDHardWareSPI)
//   69   OLEDHardWareSPI_SendByte(data);
        MOV.B   R14, R13
        MOV.B   #0x3, R12
          CFI TailCall SPI_SendReadByte
        BRA     #SPI_SendReadByte
          CFI EndBlock cfiBlock7
        REQUIRE _A_PDOUT_L
//   70 #else
//   71   OLED_SCL=0;
//   72   for(i=0;i < 8;i++)
//   73   {
//   74     OLED_SDA = (data&0x80) ? 1 : 0;//上升沿发送数据
//   75     OLED_SCL = 1;
//   76     OLED_SCL = 0;		
//   77     data <<= 1;    
//   78   }
//   79 #endif
//   80 }

        RSEG `CODE`:CODE:NOROOT(1)
?Subroutine22:
          CFI Block cfiCond8 Using cfiCommon0
          CFI Function OLED_WriteByte
          CFI Conditional ??OLED_WriteByte_1
          CFI CFA SP+8
          CFI Block cfiCond9 Using cfiCommon0
          CFI (cfiCond9) Function OLED_DispChar
          CFI (cfiCond9) Conditional ??CrossCallReturnLabel_38, ??CrossCallReturnLabel_8
          CFI (cfiCond9) R4L Frame(CFA, -36)
          CFI (cfiCond9) R4H Frame(CFA, -34)
          CFI (cfiCond9) R5L Frame(CFA, -32)
          CFI (cfiCond9) R5H Frame(CFA, -30)
          CFI (cfiCond9) R6L Frame(CFA, -28)
          CFI (cfiCond9) R6H Frame(CFA, -26)
          CFI (cfiCond9) R7L Frame(CFA, -24)
          CFI (cfiCond9) R7H Frame(CFA, -22)
          CFI (cfiCond9) R8L Frame(CFA, -20)
          CFI (cfiCond9) R8H Frame(CFA, -18)
          CFI (cfiCond9) R9L Frame(CFA, -16)
          CFI (cfiCond9) R9H Frame(CFA, -14)
          CFI (cfiCond9) R10L Frame(CFA, -12)
          CFI (cfiCond9) R10H Frame(CFA, -10)
          CFI (cfiCond9) R11L Frame(CFA, -8)
          CFI (cfiCond9) R11H Frame(CFA, -6)
          CFI (cfiCond9) CFA SP+44
          CFI Block cfiCond10 Using cfiCommon0
          CFI (cfiCond10) Function OLED_DispChineseAt
          CFI (cfiCond10) Conditional ??CrossCallReturnLabel_38, ??CrossCallReturnLabel_9
          CFI (cfiCond10) R4L Frame(CFA, -36)
          CFI (cfiCond10) R4H Frame(CFA, -34)
          CFI (cfiCond10) R5L Frame(CFA, -32)
          CFI (cfiCond10) R5H Frame(CFA, -30)
          CFI (cfiCond10) R6L Frame(CFA, -28)
          CFI (cfiCond10) R6H Frame(CFA, -26)
          CFI (cfiCond10) R7L Frame(CFA, -24)
          CFI (cfiCond10) R7H Frame(CFA, -22)
          CFI (cfiCond10) R8L Frame(CFA, -20)
          CFI (cfiCond10) R8H Frame(CFA, -18)
          CFI (cfiCond10) R9L Frame(CFA, -16)
          CFI (cfiCond10) R9H Frame(CFA, -14)
          CFI (cfiCond10) R10L Frame(CFA, -12)
          CFI (cfiCond10) R10H Frame(CFA, -10)
          CFI (cfiCond10) R11L Frame(CFA, -8)
          CFI (cfiCond10) R11H Frame(CFA, -6)
          CFI (cfiCond10) CFA SP+44
          CFI Block cfiPicker11 Using cfiCommon1
          CFI (cfiPicker11) NoFunction
          CFI (cfiPicker11) Picker
        ADDA    R15, R13
        MOVX.B  R14, OLED_RAM_DATA(R13)
          CFI EndBlock cfiCond8
          CFI EndBlock cfiCond9
          CFI EndBlock cfiCond10
          CFI EndBlock cfiPicker11
        REQUIRE ?Subroutine24
        // Fall through to label ?Subroutine24

        RSEG `CODE`:CODE:REORDER:NOROOT(1)
?Subroutine24:
          CFI Block cfiCond12 Using cfiCommon0
          CFI Function OLED_WriteByte
          CFI Conditional ??OLED_WriteByte_1
          CFI CFA SP+8
          CFI Block cfiCond13 Using cfiCommon0
          CFI (cfiCond13) Function OLED_DispChar
          CFI (cfiCond13) Conditional ??CrossCallReturnLabel_38, ??CrossCallReturnLabel_8
          CFI (cfiCond13) R4L Frame(CFA, -36)
          CFI (cfiCond13) R4H Frame(CFA, -34)
          CFI (cfiCond13) R5L Frame(CFA, -32)
          CFI (cfiCond13) R5H Frame(CFA, -30)
          CFI (cfiCond13) R6L Frame(CFA, -28)
          CFI (cfiCond13) R6H Frame(CFA, -26)
          CFI (cfiCond13) R7L Frame(CFA, -24)
          CFI (cfiCond13) R7H Frame(CFA, -22)
          CFI (cfiCond13) R8L Frame(CFA, -20)
          CFI (cfiCond13) R8H Frame(CFA, -18)
          CFI (cfiCond13) R9L Frame(CFA, -16)
          CFI (cfiCond13) R9H Frame(CFA, -14)
          CFI (cfiCond13) R10L Frame(CFA, -12)
          CFI (cfiCond13) R10H Frame(CFA, -10)
          CFI (cfiCond13) R11L Frame(CFA, -8)
          CFI (cfiCond13) R11H Frame(CFA, -6)
          CFI (cfiCond13) CFA SP+44
          CFI Block cfiCond14 Using cfiCommon0
          CFI (cfiCond14) Function OLED_DispChineseAt
          CFI (cfiCond14) Conditional ??CrossCallReturnLabel_38, ??CrossCallReturnLabel_9
          CFI (cfiCond14) R4L Frame(CFA, -36)
          CFI (cfiCond14) R4H Frame(CFA, -34)
          CFI (cfiCond14) R5L Frame(CFA, -32)
          CFI (cfiCond14) R5H Frame(CFA, -30)
          CFI (cfiCond14) R6L Frame(CFA, -28)
          CFI (cfiCond14) R6H Frame(CFA, -26)
          CFI (cfiCond14) R7L Frame(CFA, -24)
          CFI (cfiCond14) R7H Frame(CFA, -22)
          CFI (cfiCond14) R8L Frame(CFA, -20)
          CFI (cfiCond14) R8H Frame(CFA, -18)
          CFI (cfiCond14) R9L Frame(CFA, -16)
          CFI (cfiCond14) R9H Frame(CFA, -14)
          CFI (cfiCond14) R10L Frame(CFA, -12)
          CFI (cfiCond14) R10H Frame(CFA, -10)
          CFI (cfiCond14) R11L Frame(CFA, -8)
          CFI (cfiCond14) R11H Frame(CFA, -6)
          CFI (cfiCond14) CFA SP+44
          CFI Block cfiCond15 Using cfiCommon0
          CFI (cfiCond15) Function OLED_FillPart
          CFI (cfiCond15) Conditional ??CrossCallReturnLabel_39, ??CrossCallReturnLabel_10
          CFI (cfiCond15) R4L Frame(CFA, -36)
          CFI (cfiCond15) R4H Frame(CFA, -34)
          CFI (cfiCond15) R5L Frame(CFA, -32)
          CFI (cfiCond15) R5H Frame(CFA, -30)
          CFI (cfiCond15) R6L Frame(CFA, -28)
          CFI (cfiCond15) R6H Frame(CFA, -26)
          CFI (cfiCond15) R7L Frame(CFA, -24)
          CFI (cfiCond15) R7H Frame(CFA, -22)
          CFI (cfiCond15) R8L Frame(CFA, -20)
          CFI (cfiCond15) R8H Frame(CFA, -18)
          CFI (cfiCond15) R9L Frame(CFA, -16)
          CFI (cfiCond15) R9H Frame(CFA, -14)
          CFI (cfiCond15) R10L Frame(CFA, -12)
          CFI (cfiCond15) R10H Frame(CFA, -10)
          CFI (cfiCond15) R11L Frame(CFA, -8)
          CFI (cfiCond15) R11H Frame(CFA, -6)
          CFI (cfiCond15) CFA SP+44
          CFI Block cfiCond16 Using cfiCommon0
          CFI (cfiCond16) Function OLED_PrintfAt
          CFI (cfiCond16) Conditional ??CrossCallReturnLabel_39, ??CrossCallReturnLabel_11
          CFI (cfiCond16) R4L Frame(CFA, -36)
          CFI (cfiCond16) R4H Frame(CFA, -34)
          CFI (cfiCond16) R5L Frame(CFA, -32)
          CFI (cfiCond16) R5H Frame(CFA, -30)
          CFI (cfiCond16) R6L Frame(CFA, -28)
          CFI (cfiCond16) R6H Frame(CFA, -26)
          CFI (cfiCond16) R7L Frame(CFA, -24)
          CFI (cfiCond16) R7H Frame(CFA, -22)
          CFI (cfiCond16) R8L Frame(CFA, -20)
          CFI (cfiCond16) R8H Frame(CFA, -18)
          CFI (cfiCond16) R9L Frame(CFA, -16)
          CFI (cfiCond16) R9H Frame(CFA, -14)
          CFI (cfiCond16) R10L Frame(CFA, -12)
          CFI (cfiCond16) R10H Frame(CFA, -10)
          CFI (cfiCond16) R11L Frame(CFA, -8)
          CFI (cfiCond16) R11H Frame(CFA, -6)
          CFI (cfiCond16) CFA SP+182
          CFI Block cfiPicker17 Using cfiCommon1
          CFI (cfiPicker17) NoFunction
          CFI (cfiPicker17) Picker
        ADD.B   #0x1, R15
        CMP.B   #0x80, R15
        JNC     ??OLED_WriteByte_2
        MOV.B   #0x0, R15
        ADDX.B  #0x1, &line_position
??OLED_WriteByte_2:
        RETA
          CFI EndBlock cfiCond12
          CFI EndBlock cfiCond13
          CFI EndBlock cfiCond14
          CFI EndBlock cfiCond15
          CFI EndBlock cfiCond16
          CFI EndBlock cfiPicker17
//   81 /*******************************************************************************
//   82 *  函数名称：OLED_SetPosition(uint8_t line,uint8_t x)
//   83 *  功能说明：OLED设置光标位置
//   84 *  参数说明：uint8_t line：行位置（0-7）
//   85              uint8_t x   ：列位置（0-127）
//   86 *  函数返回：无
//   87 *  使用示例：
//   88 ********************************************************************************/
//   89 void OLED_SetPosition(uint8_t line,uint8_t x)
//   90 {
//   91   OLED_WriteByte(CMD,0xB0+line);            //设置行        
//   92   OLED_WriteByte(CMD,x&0x0F);            //设置某列的低四位地址 0x00-0x0F
//   93   OLED_WriteByte(CMD,(x>>4)|0x10);       //设置某列的高四位地址 0x10-0x1F
//   94 #ifdef OLED_RAM //如果开启显存
//   95   line_position = line;
//   96   row_position = x;
//   97 #endif
//   98 }
//   99 /*******************************************************************************
//  100 *  函数名称：OLED_DrawPoint(uint8_t x,uint8_t y,uint8_t value)
//  101 *  功能说明：OLED在某一位置画点,需要开启显存
//  102 *  参数说明：
//  103             uint8_t x：列位置（0-127）
//  104             uint8_t y：行位置（0-64）
//  105             uint8_t value：该点是否显示(0:不显示，1:显示)
//  106 *  函数返回：无
//  107 *  使用示例：
//  108 ********************************************************************************/
//  109 #ifdef OLED_RAM //开启显存
//  110 void OLED_DrawPoint(uint8_t x,uint8_t y,uint8_t value)
//  111 {
//  112     uint8_t data_temp; //data1 当前点的数据
//  113     uint8_t line = y/8;
//  114     data_temp = OLED_RAM_DATA[line][x];
//  115     if(value)
//  116       data_temp |= 0x01<<(y%8);
//  117     else
//  118       data_temp &= ~(0x01<<(y%8));
//  119     
//  120     OLED_SetPosition(line,x);
//  121     OLED_WriteByte(DATA,data_temp);
//  122 }
//  123 #endif
//  124 /*******************************************************************************
//  125 *  函数名称：OLED_FillRect(uint8_t x0,uint8_t y0,uint8_t x1,uint8_t y1,uint8_t data)
//  126 *  功能说明：OLED填充某一矩形区域
//  127 *  参数说明：uint8_t line：行位置（0-7）
//  128              uint8_t x   ：列位置（0-127）
//  129              uint8_t data：该区域是否显示(0:不显示，1:显示)
//  130 *  函数返回：无
//  131 *  使用示例：
//  132 ********************************************************************************/
//  133 #ifdef OLED_RAM //开启显存
//  134 void OLED_FillRect(uint8_t x0,uint8_t y0,uint8_t x1,uint8_t y1,uint8_t data)
//  135 {
//  136   uint8_t y,x;
//  137   for(y=y0;y <= y1;y++)
//  138   { 
//  139     for(x=x0;x <= x1;x++)
//  140     {
//  141       OLED_DrawPoint(x,y,data);
//  142     }  
//  143   }
//  144 }
//  145 #endif
//  146 /*******************************************************************************
//  147 *  函数名称：OLED_FillPart(uint8_t x0,uint8_t line0,uint8_t x1,uint8_t line1,uint8_t data)
//  148 *  功能说明：OLED填充某一矩形区域
//  149 *  参数说明：
//  150              uint8_t x0  ：列起始位置（0-127）
//  151              uint8_t line0：行起始位置（0-7）
//  152              uint8_t x1  ：列结束位置（0-127）
//  153              uint8_t line1：行结束位置（0-7）
//  154              uint8_t data：该区域是否显示(0:不显示，1:显示) 
//  155 
//  156 *  函数返回：无
//  157 *  使用示例：OLED_FillPart(0,0,OLED_WIDTH,7,0);  //清屏
//  158 ********************************************************************************/
//  159 void OLED_FillPart(uint8_t x0,uint8_t line0,uint8_t x1,uint8_t line1,uint8_t data)
//  160 {
//  161   uint8_t line,x;
//  162   data = data ? 0xff : 0x00;
//  163   for(line=line0;line <= line1;line++)
//  164   {
//  165     OLED_SetPosition(line,x0);
//  166     for(x=x0;x < x1;x++)
//  167     {
//  168 #ifdef OLED_RAM //开启显存
//  169       OLED_RAM_DATA[line][x] = 0;
//  170 #endif
//  171       OLED_WriteByte(DATA,data);
//  172     }
//  173   }
//  174 }
//  175 /*******************************************************************************
//  176 *  函数名称：OLED_Clear(void)
//  177 *  功能说明：OLED清屏，如果开启显存，则同样清零
//  178 *  参数说明：无
//  179 *  函数返回：无
//  180 *  使用示例：
//  181 ********************************************************************************/
//  182 void OLED_Clear(void)
//  183 {
//  184   int line,x;
//  185   
//  186   for(line=0;line < (OLED_HEIGHT/8);line++)
//  187   {
//  188     OLED_SetPosition(line,0);
//  189     for(x=0;x<OLED_WIDTH;x++)
//  190     {
//  191 #ifdef OLED_RAM //开启显存
//  192       OLED_RAM_DATA[line][x] = 0;
//  193 #endif
//  194       OLED_WriteByte(DATA,0);
//  195     }
//  196   }
//  197 }
//  198 /*******************************************************************************
//  199 *  函数名称：OLED_Init(void)
//  200 *  功能说明：OLED初始化
//  201 *  参数说明：无
//  202 *  函数返回：无
//  203 *  使用示例：
//  204 ********************************************************************************/
//  205 void OLED_Init(void)
//  206 {
//  207     uint16_t i;
//  208     OLED_PORT_Init();
//  209     // OLED_CS  = 0;  //芯片选择输入 低电平使能
//  210     OLED_RST=0;  //复位信号,不可省略
//  211     for(i=0;i<10000;i++);
//  212     OLED_RST=1;
//  213     
//  214    
//  215     OLED_WriteByte(CMD,0xA8);    //set Multiplex Ratio
//  216     OLED_WriteByte(CMD,0x3F);  
//  217     
//  218     OLED_WriteByte(CMD,0xD3);    //设置显示偏移
//  219     OLED_WriteByte(CMD,0x00);
//  220     
//  221     OLED_WriteByte(CMD,0x40);    //设置开始显示行 
//  222     
//  223     OLED_WriteByte(CMD,0xA1);    //设置段重映射  A0h/A1h
//  224     
//  225     OLED_WriteByte(CMD,0xC8);    //设置COM的扫描方向  C0h/C8h
//  226     
//  227     OLED_WriteByte(CMD,0xDA);    //设置COM管脚的硬件配置
//  228     OLED_WriteByte(CMD,0x12);
//  229     
//  230     OLED_WriteByte(CMD,0x81);    //设置对比度
//  231     OLED_WriteByte(CMD,0x7F);
//  232     
//  233     OLED_WriteByte(CMD,0xA4);    //禁止屏幕显示
//  234     
//  235     OLED_WriteByte(CMD,0xA6);    //设置正常显示
//  236     
//  237     OLED_WriteByte(CMD,0xD5);    //设置OSC频率
//  238     OLED_WriteByte(CMD,0x80);
//  239     
//  240     OLED_WriteByte(CMD,0x8D);    //Enable charge pupm regulator
//  241     OLED_WriteByte(CMD,0x14);
//  242     
//  243     OLED_WriteByte(CMD,0xAF);    //开显示
//  244     
//  245     OLED_Clear();                //清屏
//  246 }
//  247 /*******************************************************************************
//  248 *  函数名称：OLED_DispChar(OLED_FONT font,uint8_t line,uint8_t x,char ascii)
//  249 *  功能说明：OLED显示一个字符
//  250 *  参数说明：OLED_FONT font：字体（OLED_FONT枚举）
//  251              uint8_t line：行位置（0-7）
//  252              uint8_t x   ：列位置（0-127）
//  253              char ascii  ：要显示的字符
//  254 *  函数返回：无
//  255 *  使用示例：
//  256 ********************************************************************************/
//  257 void OLED_DispChar(OLED_FONT font,uint8_t line,uint8_t x,char ascii)
//  258 {
//  259     uint8_t offect,i,height;
//  260     const unsigned char *pFontData;
//  261     if(ascii<' '||ascii>'~')return;
//  262     OLED_SetPosition(line,x);
//  263     offect = (uint8_t)(ascii - ' ');
//  264     //读取存放字体数据的起始位置
//  265     pFontData = Font[font].pData+(Font[font].width*Font[font].height/8)*offect;
//  266     
//  267     for(height = 0;height < Font[font].height;height+=8)
//  268     {
//  269       OLED_SetPosition(line+(height/8),x);                   
//  270       for(i=0;i<Font[font].width;i++)
//  271       {
//  272         OLED_WriteByte(DATA,*pFontData++);
//  273       }
//  274     }
//  275 }
//  276 /*******************************************************************************
//  277 *  函数名称：OLED_DispStringLen(OLED_FONT font,uint8_t line,uint8_t x,char *str,uint8_t len)
//  278 *  功能说明：OLED显示一个指定长度的字符串
//  279 *  参数说明：OLED_FONT font：字体（OLED_FONT枚举）
//  280              uint8_t line：行位置（0-7）
//  281              uint8_t x   ：列位置（0-127）
//  282              char *str   ：字符串
//  283              uint8_t len ：字符串长度
//  284 *  函数返回：无
//  285 *  使用示例：
//  286 ********************************************************************************/
//  287 void OLED_DispStringLen(OLED_FONT font,uint8_t line,uint8_t x,char *str,uint8_t len)
//  288 {
//  289    while(len--)
//  290    {
//  291      if(*str)
//  292      {
//  293        OLED_DispChar(font,line,x,*str++);
//  294      }
//  295      else
//  296      {
//  297        OLED_DispChar(font,line,x,' ');
//  298      }
//  299      x += Font[font].width;
//  300      if(x > (OLED_WIDTH - Font[font].width))
//  301      {
//  302         x = 0;
//  303         line += (Font[font].height/8);
//  304         if(line > ((OLED_HEIGHT/Font[font].height)-1))line = 0;
//  305      }
//  306    }
//  307 }
//  308 /*******************************************************************************
//  309 *  函数名称：OLED_DispStringAt(OLED_FONT font,uint8_t line,uint8_t x,char *str)
//  310 *  功能说明：OLED在指定位置显示一个的字符串
//  311 *  参数说明：OLED_FONT font：字体（OLED_FONT枚举）
//  312              uint8_t line：行位置（0-7）
//  313              uint8_t x   ：列位置（0-127）
//  314              char *str   ：要显示的字符串
//  315 *  函数返回：无
//  316 *  使用示例：OLED_DispStringAt(FONT_6X8,0,0,"Hello!"); //显示一个字符串
//  317 ********************************************************************************/
//  318 void OLED_DispStringAt(OLED_FONT font,uint8_t line,uint8_t x,char *str)
//  319 {
//  320   while(*str != '\0')
//  321   {
//  322      OLED_DispChar(font,line,x,*str++);
//  323      x += Font[font].width;
//  324      if(x > (OLED_WIDTH - Font[font].width))
//  325      {
//  326         x = 0;
//  327         line += (Font[font].height/8);
//  328         if(line > ((OLED_HEIGHT/Font[font].height)-1))line = 0;
//  329      }
//  330   }
//  331 }
//  332 /*******************************************************************************
//  333 *  函数名称：OLED_DispStringAtCEOL(OLED_FONT font,uint8_t line,uint8_t x,char *str)
//  334 *  功能说明：OLED在指定位置显示一个的字符串，并清除显示至末尾
//  335 *  参数说明：OLED_FONT font：字体（OLED_FONT枚举）
//  336              uint8_t line：行位置（0-7）
//  337              uint8_t x   ：列位置（0-127）
//  338              char *str   ：字符串
//  339 *  函数返回：无
//  340 *  使用示例：OLED_DispStringAtCEOL(FONT_6X8,1,0,"Hello!"); //显示一个字符串并清除显示至末尾
//  341 ********************************************************************************/
//  342 void OLED_DispStringAtCEOL(OLED_FONT font,uint8_t line,uint8_t x,char *str)
//  343 {
//  344     while(*str != '\0')
//  345     {
//  346       OLED_DispChar(font,line,x,*str++);
//  347       x += Font[font].width;
//  348       if(x > (OLED_WIDTH - Font[font].width))
//  349       {
//  350         x = 0;
//  351         line += (Font[font].height/8);
//  352         if(line > ((OLED_HEIGHT/Font[font].height)-1))line = 0;
//  353       }
//  354     }
//  355     //对该行剩余显示区域清零
//  356     OLED_FillPart(x,line,OLED_WIDTH-1,line,0);
//  357 }
//  358 /*******************************************************************************
//  359 *  函数名称：OLED_DispDecAt(OLED_FONT font,uint8_t line,uint8_t x,int32_t number,uint8_t len)
//  360 *  功能说明：OLED显示一个的整形数字
//  361 *  参数说明：OLED_FONT font：字体（OLED_FONT枚举）
//  362              uint8_t line：行位置（0-7）
//  363              uint8_t x   ：列位置（0-127）
//  364              int32_t number：要显示的数字
//  365              uint8_t len   ：显示的位数
//  366 *  函数返回：无
//  367 *  使用示例：
//  368 ********************************************************************************/
//  369 void OLED_DispDecAt(OLED_FONT font,uint8_t line,uint8_t x,int32_t number,uint8_t len)
//  370 {
//  371   char buf[30];
//  372   int8_t p,flag=0;
//  373   uint32_t temp;
//  374   if(number < 0)
//  375   {
//  376     number = -number;
//  377     flag = 1;
//  378   }
//  379   temp = 10;
//  380   for(p = len-1;p >= 0;p--)
//  381   {
//  382     buf[p] = ((number%temp)/(temp/10)) + '0';
//  383     if(number < temp)break;
//  384     temp = temp * 10;
//  385   }
//  386   if(flag)
//  387   {
//  388     buf[--p] = '-';
//  389   }
//  390    
//  391   while(p-- > 0)
//  392   {
//  393     buf[p] = ' ';
//  394   }
//  395 
//  396   buf[len] = 0;
//  397   
//  398   OLED_DispStringAt(font,line,x,buf);
//  399 }
//  400 /*******************************************************************************
//  401 *  函数名称：OLED_DispFolatAt(OLED_FONT font,uint8_t line,uint8_t x,float number,uint8_t len)
//  402 *  功能说明：OLED显示一个的浮点数
//  403 *  参数说明：OLED_FONT font：字体（OLED_FONT枚举）
//  404              uint8_t line：行位置（0-7）
//  405              uint8_t x   ：列位置（0-127）
//  406              float number：要显示的浮点数
//  407              uint8_t len ：显示的位数(不计算小数点)
//  408 *  函数返回：无
//  409 *  使用示例：
//  410 ********************************************************************************/
//  411 void OLED_DispFolatAt(OLED_FONT font,uint8_t line,uint8_t x,float number,uint8_t len)
//  412 {

        RSEG DATA20_C:CONST:SORT:NOROOT(1)
//  413   const float _fround[6]={0.49,0.05,0.005,0.0005,0.00005,0.000005};
`?<Constant {(4.90000009E-1F), (5.0000000744E-2`:
        DATA32
        DC32 3EFAE148H, 3D4CCCCDH, 3BA3D70AH, 3A03126FH, 3851B717H, 36A7C5ACH

        RSEG `CODE`:CODE:NOROOT(1)
?Subroutine0:
          CFI Block cfiCond18 Using cfiCommon0
          CFI Function OLED_FillPart
          CFI Conditional ??CrossCallReturnLabel_3
          CFI R4L Frame(CFA, -36)
          CFI R4H Frame(CFA, -34)
          CFI R5L Frame(CFA, -32)
          CFI R5H Frame(CFA, -30)
          CFI R6L Frame(CFA, -28)
          CFI R6H Frame(CFA, -26)
          CFI R7L Frame(CFA, -24)
          CFI R7H Frame(CFA, -22)
          CFI R8L Frame(CFA, -20)
          CFI R8H Frame(CFA, -18)
          CFI R9L Frame(CFA, -16)
          CFI R9H Frame(CFA, -14)
          CFI R10L Frame(CFA, -12)
          CFI R10H Frame(CFA, -10)
          CFI R11L Frame(CFA, -8)
          CFI R11H Frame(CFA, -6)
          CFI CFA SP+40
          CFI Block cfiCond19 Using cfiCommon0
          CFI (cfiCond19) Function OLED_DispChar
          CFI (cfiCond19) Conditional ??CrossCallReturnLabel_2
          CFI (cfiCond19) R4L Frame(CFA, -36)
          CFI (cfiCond19) R4H Frame(CFA, -34)
          CFI (cfiCond19) R5L Frame(CFA, -32)
          CFI (cfiCond19) R5H Frame(CFA, -30)
          CFI (cfiCond19) R6L Frame(CFA, -28)
          CFI (cfiCond19) R6H Frame(CFA, -26)
          CFI (cfiCond19) R7L Frame(CFA, -24)
          CFI (cfiCond19) R7H Frame(CFA, -22)
          CFI (cfiCond19) R8L Frame(CFA, -20)
          CFI (cfiCond19) R8H Frame(CFA, -18)
          CFI (cfiCond19) R9L Frame(CFA, -16)
          CFI (cfiCond19) R9H Frame(CFA, -14)
          CFI (cfiCond19) R10L Frame(CFA, -12)
          CFI (cfiCond19) R10H Frame(CFA, -10)
          CFI (cfiCond19) R11L Frame(CFA, -8)
          CFI (cfiCond19) R11H Frame(CFA, -6)
          CFI (cfiCond19) CFA SP+40
          CFI Block cfiCond20 Using cfiCommon0
          CFI (cfiCond20) Function OLED_DispChineseAt
          CFI (cfiCond20) Conditional ??CrossCallReturnLabel_1
          CFI (cfiCond20) R4L Frame(CFA, -36)
          CFI (cfiCond20) R4H Frame(CFA, -34)
          CFI (cfiCond20) R5L Frame(CFA, -32)
          CFI (cfiCond20) R5H Frame(CFA, -30)
          CFI (cfiCond20) R6L Frame(CFA, -28)
          CFI (cfiCond20) R6H Frame(CFA, -26)
          CFI (cfiCond20) R7L Frame(CFA, -24)
          CFI (cfiCond20) R7H Frame(CFA, -22)
          CFI (cfiCond20) R8L Frame(CFA, -20)
          CFI (cfiCond20) R8H Frame(CFA, -18)
          CFI (cfiCond20) R9L Frame(CFA, -16)
          CFI (cfiCond20) R9H Frame(CFA, -14)
          CFI (cfiCond20) R10L Frame(CFA, -12)
          CFI (cfiCond20) R10H Frame(CFA, -10)
          CFI (cfiCond20) R11L Frame(CFA, -8)
          CFI (cfiCond20) R11H Frame(CFA, -6)
          CFI (cfiCond20) CFA SP+40
          CFI Block cfiCond21 Using cfiCommon0
          CFI (cfiCond21) Function OLED_PrintfAt
          CFI (cfiCond21) Conditional ??CrossCallReturnLabel_0
          CFI (cfiCond21) R4L Frame(CFA, -36)
          CFI (cfiCond21) R4H Frame(CFA, -34)
          CFI (cfiCond21) R5L Frame(CFA, -32)
          CFI (cfiCond21) R5H Frame(CFA, -30)
          CFI (cfiCond21) R6L Frame(CFA, -28)
          CFI (cfiCond21) R6H Frame(CFA, -26)
          CFI (cfiCond21) R7L Frame(CFA, -24)
          CFI (cfiCond21) R7H Frame(CFA, -22)
          CFI (cfiCond21) R8L Frame(CFA, -20)
          CFI (cfiCond21) R8H Frame(CFA, -18)
          CFI (cfiCond21) R9L Frame(CFA, -16)
          CFI (cfiCond21) R9H Frame(CFA, -14)
          CFI (cfiCond21) R10L Frame(CFA, -12)
          CFI (cfiCond21) R10H Frame(CFA, -10)
          CFI (cfiCond21) R11L Frame(CFA, -8)
          CFI (cfiCond21) R11H Frame(CFA, -6)
          CFI (cfiCond21) CFA SP+178
          CFI Block cfiPicker22 Using cfiCommon1
          CFI (cfiPicker22) NoFunction
          CFI (cfiPicker22) Picker
        BIS.B   #0x4, &0x263
        MOVX.B  &row_position, R15
        JMP     ?Subroutine23
          CFI EndBlock cfiCond18
          CFI EndBlock cfiCond19
          CFI EndBlock cfiCond20
          CFI EndBlock cfiCond21
          CFI EndBlock cfiPicker22
//  414   unsigned char i=0,d;
//  415   char Str[20];
//  416   char * str=Str;
//  417   float scale = 1.0;
//  418   
//  419   if (number<0.0) 
//  420   {
//  421     number=-number;
//  422     *str++='-';
//  423   };
//  424   if (len>5) 
//  425     len=5;
//  426   number = number + _fround[len];
//  427 
//  428   while (number>=scale) 
//  429   {
//  430     scale=scale*10.0;
//  431     ++i;
//  432   };
//  433   if (i==0) 
//  434     *str++='0';
//  435   else
//  436   {
//  437     while (i--)
//  438     {
//  439       scale=(float)((int)(0.5+scale/10.0));
//  440       d=(unsigned char) (number/scale);
//  441       *str++=d+'0';
//  442       number=number-scale*d;
//  443      };
//  444   }
//  445   if (len==0) {*str=0; OLED_DispStringAt(font,line,x,Str);return;};
//  446   *str++='.';
//  447   while (len--)
//  448   {
//  449     number=number*10.0;
//  450     d=(unsigned char)number;
//  451     *str++=d+'0';
//  452     number=number-d;
//  453   }
//  454   *str = 0;
//  455   OLED_DispStringAt(font,line,x,Str);
//  456   
//  457 }
//  458 /*******************************************************************************
//  459 *  函数名称：OLED_DispChineseAt(OLED_FONT font,uint8_t line,uint8_t x,char *str)
//  460 *  功能说明：OLED显示一个汉字 显示的内容在FONT_CHINESE.h中的，
//  461             必须要先用汉字取模软件将数组存放在 CHINESE_16X16数组里，
//  462                 同时按相同的汉字顺序将汉字放入 FONT_CHINESE_TABLE数组里
//  463 *  参数说明：OLED_FONT font：字体（OLED_FONT枚举）
//  464              uint8_t line：行位置（0-7）
//  465              uint8_t x   ：列位置（0-127）
//  466              uint8_t x,char *str：要显示的汉字字符串
//  467 *  函数返回：无
//  468 *  使用示例：
//  469 ********************************************************************************/
//  470 void OLED_DispChineseAt(OLED_FONT font,uint8_t line,uint8_t x,char *str)
//  471 {
//  472   const unsigned char *pFontData;
//  473   uint8_t offect,i,height;
//  474   
//  475   int font_num = sizeof(FONT_CHINESE_TABLE)/sizeof(char *);
//  476 
//  477   while(*str)
//  478   {
//  479     for(offect=0;offect < font_num;offect++)
//  480     {
//  481       if(*str == *FONT_CHINESE_TABLE[offect] && *(str+1) == *(FONT_CHINESE_TABLE[offect]+1))
//  482       {
//  483         //读取存放字体数据的起始位置
//  484         pFontData = Font[font].pData+(Font[font].width*Font[font].height/8)*offect;
//  485         
//  486         for(height = 0;height < Font[font].height;height+=8)
//  487         {
//  488           OLED_SetPosition(line+(height/8),x);                   
//  489           for(i=0;i<Font[font].width;i++)
//  490           {
//  491             OLED_WriteByte(DATA,*pFontData++);
//  492           }
//  493         }
//  494         x += Font[font].width;
//  495         if(x > (OLED_WIDTH - Font[font].width))
//  496         {
//  497           x = 0;
//  498           line += (Font[font].height/8);
//  499           if(line > ((OLED_HEIGHT/Font[font].height)-1))line = 0;
//  500         }
//  501         break;
//  502       }
//  503     }
//  504     str +=2;
//  505   }
//  506 }
//  507 /*******************************************************************************
//  508 *  函数名称：OLED_PrintfAt(OLED_FONT font,uint8_t y,uint8_t x,const char * fmt,...)
//  509 *  功能说明：OLED在指定位置打印
//  510 *  参数说明：OLED_FONT font：字体（OLED_FONT枚举）
//  511              uint8_t line：行位置（0-7）
//  512              uint8_t x   ：列位置（0-127）
//  513 *  函数返回：无
//  514 *  使用示例：
//  515 ********************************************************************************/

        RSEG `CODE`:CODE:NOROOT(1)
//  516 void OLED_PrintfAt(OLED_FONT font,uint8_t line,uint8_t x,const char * fmt,...)
OLED_PrintfAt:
          CFI Block cfiBlock23 Using cfiCommon0
          CFI Function OLED_PrintfAt
//  517 {
        PUSHM.A #0x8, R11
          CFI R4L Frame(CFA, -36)
          CFI R4H Frame(CFA, -34)
          CFI R5L Frame(CFA, -32)
          CFI R5H Frame(CFA, -30)
          CFI R6L Frame(CFA, -28)
          CFI R6H Frame(CFA, -26)
          CFI R7L Frame(CFA, -24)
          CFI R7H Frame(CFA, -22)
          CFI R8L Frame(CFA, -20)
          CFI R8H Frame(CFA, -18)
          CFI R9L Frame(CFA, -16)
          CFI R9H Frame(CFA, -14)
          CFI R10L Frame(CFA, -12)
          CFI R10H Frame(CFA, -10)
          CFI R11L Frame(CFA, -8)
          CFI R11H Frame(CFA, -6)
          CFI CFA SP+36
        PUSH.B  R12
          CFI CFA SP+38
        SUBA    #0x88, SP
          CFI CFA SP+174
        MOV.B   R13, R11
        MOV.B   R14, R8
        MOVA    R15, R13
//  518   char OLED_String[128];
//  519   va_list ap;
//  520   va_start(ap,fmt);
        MOVA    SP, R15
        ADDA    #0xae, R15
        MOVA    R15, 0x4(SP)
//  521   vsprintf(OLED_String,fmt,ap);
        MOVA    SP, R9
        ADDA    #0x8, R9
        PUSHM.A #0x1, R15
          CFI CFA SP+178
        MOVA    R9, R12
          CFI FunCall vsprintf
        CALLA   #vsprintf
//  522   uint8_t lastposition=0;
        MOV.B   #0x0, R10
//  523   int length=strlen(OLED_String);
        MOVA    R9, R12
          CFI FunCall strlen
        CALLA   #strlen
        MOV.W   R12, R5
//  524   int TEXT_SIZE=OLED_WIDTH/Font[font].width;
        MOV.B   0x8c(SP), R6
        ADDA    R6, R6
        MOVA    R6, R7
        ADDA    R6, R6
        ADDA    R7, R6
        MOV.W   #0x80, R12
        MOVX.B  Font(R6), R14
          CFI FunCall ?DivMod16s
        CALLA   #?DivMod16s
        MOV.W   R12, 0x4(SP)
//  525   for(int i=0;i<=length;i++)
        MOV.W   #0x0, R7
        ADDA    #0x4, SP
          CFI CFA SP+174
        CMP.W   #0x0, R5
        JL      ??OLED_PrintfAt_5
        MOV.W   #0x40, R12
        MOVX.B  Font + 1(R6), R14
        CALLA   #??Subroutine17_0
??CrossCallReturnLabel_53:
        MOV.W   R12, 0x2(SP)
//  526   {
//  527     if(OLED_String[i]=='\n')
??OLED_PrintfAt_2:
        MOV.W   R7, R15
        RLAM.A  #0x4, R15
        RRAM.A  #0x4, R15
        ADDA    R9, R15
        MOV.B   @R15, R15
        CMP.B   #0xa, R15
        JNE     ??OLED_PrintfAt_6
//  528     {
//  529       uint8_t position=i;
        JMP     ??OLED_PrintfAt_4
//  530       while(position>lastposition)
//  531       {
//  532         if((position-lastposition)>TEXT_SIZE)//如果一行要显示的字符串数量大于16，则需要换行
//  533         {
//  534            OLED_DispStringLen(font,line,x,&OLED_String[lastposition],TEXT_SIZE);
??OLED_PrintfAt_0:
        PUSH.B  R4
          CFI CFA SP+176
        CALLA   #?Subroutine9
//  535            line += (Font[font].height/8);//换行
??CrossCallReturnLabel_16:
        MOVX.B  Font + 1(R6), R14
        RRUM.W  #0x3, R14
        ADD.B   R14, R11
//  536            x=0;
        MOV.B   #0x0, R8
//  537            lastposition+=TEXT_SIZE;
        ADD.B   R4, R10
        ADDA    #0x2, SP
          CFI CFA SP+174
//  538         }
??OLED_PrintfAt_4:
        CMP.B   R7, R10
        JC      ??OLED_PrintfAt_7
        MOVA    R9, R15
        ADDA    R10, R15
        MOV.B   R7, R14
        SUB.W   R10, R14
        MOV.W   @SP, R4
        CMP.W   R14, R4
        JL      ??OLED_PrintfAt_0
//  539         else
//  540         {
//  541            OLED_DispStringLen(font,line,x,&OLED_String[lastposition],(position-lastposition));
        MOV.B   R7, R14
        SUB.B   R10, R14
        MOV.B   R14, R10
        PUSH.B  R14
          CFI CFA SP+176
        CALLA   #?Subroutine9
//  542            for(x+=(position-lastposition)*Font[font].width;x < OLED_WIDTH;x++)   //将该行未显示的部分清零
??CrossCallReturnLabel_15:
        PUSH.W  SR
          CFI CFA SP+178
        DINT
        NOP
        MOV.B   R10, &__iar_HWMUL              // MPY
        MOVX.B  Font(R6), &__iar_HWMUL + 8     // OP2
        ADD.B   &__iar_HWMUL + 10, R8          // RESLO
        NOP
        POP.W   SR
          CFI CFA SP+176
        ADDA    #0x2, SP
          CFI CFA SP+174
        CMP.B   #0x80, R8
        JC      ??OLED_PrintfAt_7
        MOV.B   #0x80, R10
        SUB.B   R8, R10
//  543            {
//  544              OLED_WriteByte(DATA,0);  //写入数据
??OLED_PrintfAt_1:
        CALLA   #?Subroutine0
??CrossCallReturnLabel_0:
        PUSHM.W #0x2, R13
          CFI CFA SP+178
        POPM.A  #0x1, R14
          CFI CFA SP+174
        CALLA   #?Subroutine14
??CrossCallReturnLabel_24:
        CALLA   #?Subroutine6
??CrossCallReturnLabel_11:
        CALLA   #??Subroutine1_0
//  545            }
//  546            break;
//  547         }
//  548       } 
//  549       lastposition=position+1;
//  550       //换行后X=0,y下移一行
//  551       x = 0;
//  552       line += (Font[font].height/8);//换行
//  553       if(line>(OLED_HEIGHT/Font[font].height - 1))line=0;
//  554     }
//  555   }
??CrossCallReturnLabel_49:
        ADD.B   #0xff, R10
        JNE     ??OLED_PrintfAt_1
??OLED_PrintfAt_7:
        MOV.B   R7, R10
        ADD.B   #0x1, R10
        MOV.B   #0x0, R8
        MOVX.B  Font + 1(R6), R14
        RRUM.W  #0x3, R14
        ADD.B   R14, R11
        CMP.W   R11, 0x2(SP)
        JGE     ??OLED_PrintfAt_6
        MOV.B   #0x0, R11
??OLED_PrintfAt_6:
        ADD.W   #0x1, R7
        CMP.W   R7, R5
        JGE     ??OLED_PrintfAt_2
//  556   if(lastposition<length)
??OLED_PrintfAt_5:
        CMP.W   R5, R10
        JGE     ??OLED_PrintfAt_8
//  557   {
//  558     OLED_DispStringLen(font,line,x,&OLED_String[lastposition],(length-lastposition));
        SUB.B   R10, R5
        PUSH.B  R5
          CFI CFA SP+176
        ADDA    R10, R9
        MOVA    R9, R15
        CALLA   #?Subroutine9
//  559   }
??CrossCallReturnLabel_14:
        ADDA    #0x2, SP
          CFI CFA SP+174
//  560   va_end(ap);
//  561 } 
??OLED_PrintfAt_8:
        ADDA    #0x8a, SP
          CFI CFA SP+36
        POPM.A  #0x8, R11
          CFI R10H SameValue
          CFI R11H SameValue
          CFI R4H SameValue
          CFI R5H SameValue
          CFI R6H SameValue
          CFI R7H SameValue
          CFI R8H SameValue
          CFI R9H SameValue
          CFI R10L SameValue
          CFI R11L SameValue
          CFI R4L SameValue
          CFI R5L SameValue
          CFI R6L SameValue
          CFI R7L SameValue
          CFI R8L SameValue
          CFI R9L SameValue
          CFI CFA SP+4
        RETA
          CFI EndBlock cfiBlock23
        REQUIRE _A_PDOUT_L

        RSEG `CODE`:CODE:NOROOT(1)
?Subroutine14:
          CFI Block cfiCond24 Using cfiCommon0
          CFI Function OLED_Clear
          CFI Conditional ??CrossCallReturnLabel_23
          CFI R6L Frame(CFA, -28)
          CFI R6H Frame(CFA, -26)
          CFI R7L Frame(CFA, -24)
          CFI R7H Frame(CFA, -22)
          CFI R8L Frame(CFA, -20)
          CFI R8H Frame(CFA, -18)
          CFI R9L Frame(CFA, -16)
          CFI R9H Frame(CFA, -14)
          CFI R10L Frame(CFA, -12)
          CFI R10H Frame(CFA, -10)
          CFI R11L Frame(CFA, -8)
          CFI R11H Frame(CFA, -6)
          CFI CFA SP+32
          CFI Block cfiCond25 Using cfiCommon0
          CFI (cfiCond25) Function OLED_PrintfAt
          CFI (cfiCond25) Conditional ??CrossCallReturnLabel_24
          CFI (cfiCond25) R4L Frame(CFA, -36)
          CFI (cfiCond25) R4H Frame(CFA, -34)
          CFI (cfiCond25) R5L Frame(CFA, -32)
          CFI (cfiCond25) R5H Frame(CFA, -30)
          CFI (cfiCond25) R6L Frame(CFA, -28)
          CFI (cfiCond25) R6H Frame(CFA, -26)
          CFI (cfiCond25) R7L Frame(CFA, -24)
          CFI (cfiCond25) R7H Frame(CFA, -22)
          CFI (cfiCond25) R8L Frame(CFA, -20)
          CFI (cfiCond25) R8H Frame(CFA, -18)
          CFI (cfiCond25) R9L Frame(CFA, -16)
          CFI (cfiCond25) R9H Frame(CFA, -14)
          CFI (cfiCond25) R10L Frame(CFA, -12)
          CFI (cfiCond25) R10H Frame(CFA, -10)
          CFI (cfiCond25) R11L Frame(CFA, -8)
          CFI (cfiCond25) R11H Frame(CFA, -6)
          CFI (cfiCond25) CFA SP+178
          CFI Block cfiCond26 Using cfiCommon0
          CFI (cfiCond26) Function OLED_Printf
          CFI (cfiCond26) Conditional ??CrossCallReturnLabel_25
          CFI (cfiCond26) R4L Frame(CFA, -36)
          CFI (cfiCond26) R4H Frame(CFA, -34)
          CFI (cfiCond26) R5L Frame(CFA, -32)
          CFI (cfiCond26) R5H Frame(CFA, -30)
          CFI (cfiCond26) R6L Frame(CFA, -28)
          CFI (cfiCond26) R6H Frame(CFA, -26)
          CFI (cfiCond26) R7L Frame(CFA, -24)
          CFI (cfiCond26) R7H Frame(CFA, -22)
          CFI (cfiCond26) R8L Frame(CFA, -20)
          CFI (cfiCond26) R8H Frame(CFA, -18)
          CFI (cfiCond26) R9L Frame(CFA, -16)
          CFI (cfiCond26) R9H Frame(CFA, -14)
          CFI (cfiCond26) R10L Frame(CFA, -12)
          CFI (cfiCond26) R10H Frame(CFA, -10)
          CFI (cfiCond26) R11L Frame(CFA, -8)
          CFI (cfiCond26) R11H Frame(CFA, -6)
          CFI (cfiCond26) CFA SP+180
          CFI Block cfiPicker27 Using cfiCommon1
          CFI (cfiPicker27) NoFunction
          CFI (cfiPicker27) Picker
        ADDA    R15, R14
        MOVX.B  #0x0, OLED_RAM_DATA(R14)
        RETA
          CFI EndBlock cfiCond24
          CFI EndBlock cfiCond25
          CFI EndBlock cfiCond26
          CFI EndBlock cfiPicker27

        RSEG `CODE`:CODE:NOROOT(1)
?Subroutine9:
          CFI Block cfiCond28 Using cfiCommon0
          CFI Function OLED_PrintfAt
          CFI Conditional ??CrossCallReturnLabel_16
          CFI R4L Frame(CFA, -36)
          CFI R4H Frame(CFA, -34)
          CFI R5L Frame(CFA, -32)
          CFI R5H Frame(CFA, -30)
          CFI R6L Frame(CFA, -28)
          CFI R6H Frame(CFA, -26)
          CFI R7L Frame(CFA, -24)
          CFI R7H Frame(CFA, -22)
          CFI R8L Frame(CFA, -20)
          CFI R8H Frame(CFA, -18)
          CFI R9L Frame(CFA, -16)
          CFI R9H Frame(CFA, -14)
          CFI R10L Frame(CFA, -12)
          CFI R10H Frame(CFA, -10)
          CFI R11L Frame(CFA, -8)
          CFI R11H Frame(CFA, -6)
          CFI CFA SP+180
          CFI Block cfiCond29 Using cfiCommon0
          CFI (cfiCond29) Function OLED_PrintfAt
          CFI (cfiCond29) Conditional ??CrossCallReturnLabel_15
          CFI (cfiCond29) R4L Frame(CFA, -36)
          CFI (cfiCond29) R4H Frame(CFA, -34)
          CFI (cfiCond29) R5L Frame(CFA, -32)
          CFI (cfiCond29) R5H Frame(CFA, -30)
          CFI (cfiCond29) R6L Frame(CFA, -28)
          CFI (cfiCond29) R6H Frame(CFA, -26)
          CFI (cfiCond29) R7L Frame(CFA, -24)
          CFI (cfiCond29) R7H Frame(CFA, -22)
          CFI (cfiCond29) R8L Frame(CFA, -20)
          CFI (cfiCond29) R8H Frame(CFA, -18)
          CFI (cfiCond29) R9L Frame(CFA, -16)
          CFI (cfiCond29) R9H Frame(CFA, -14)
          CFI (cfiCond29) R10L Frame(CFA, -12)
          CFI (cfiCond29) R10H Frame(CFA, -10)
          CFI (cfiCond29) R11L Frame(CFA, -8)
          CFI (cfiCond29) R11H Frame(CFA, -6)
          CFI (cfiCond29) CFA SP+180
          CFI Block cfiCond30 Using cfiCommon0
          CFI (cfiCond30) Function OLED_PrintfAt
          CFI (cfiCond30) Conditional ??CrossCallReturnLabel_14
          CFI (cfiCond30) R4L Frame(CFA, -36)
          CFI (cfiCond30) R4H Frame(CFA, -34)
          CFI (cfiCond30) R5L Frame(CFA, -32)
          CFI (cfiCond30) R5H Frame(CFA, -30)
          CFI (cfiCond30) R6L Frame(CFA, -28)
          CFI (cfiCond30) R6H Frame(CFA, -26)
          CFI (cfiCond30) R7L Frame(CFA, -24)
          CFI (cfiCond30) R7H Frame(CFA, -22)
          CFI (cfiCond30) R8L Frame(CFA, -20)
          CFI (cfiCond30) R8H Frame(CFA, -18)
          CFI (cfiCond30) R9L Frame(CFA, -16)
          CFI (cfiCond30) R9H Frame(CFA, -14)
          CFI (cfiCond30) R10L Frame(CFA, -12)
          CFI (cfiCond30) R10H Frame(CFA, -10)
          CFI (cfiCond30) R11L Frame(CFA, -8)
          CFI (cfiCond30) R11H Frame(CFA, -6)
          CFI (cfiCond30) CFA SP+180
          CFI Block cfiPicker31 Using cfiCommon1
          CFI (cfiPicker31) NoFunction
          CFI (cfiPicker31) Picker
        MOV.B   R8, R14
        MOV.B   R11, R13
        MOV.B   0x8e(SP), R12
          CFI (cfiCond28) TailCall OLED_PrintfAt OLED_DispStringLen
          CFI (cfiCond28) TailCall OLED_PrintfAt OLED_DispStringLen
          CFI (cfiCond28) TailCall OLED_PrintfAt OLED_DispStringLen
        BRA     #OLED_DispStringLen
          CFI EndBlock cfiCond28
          CFI EndBlock cfiCond29
          CFI EndBlock cfiCond30
          CFI EndBlock cfiPicker31

        RSEG `CODE`:CODE:NOROOT(1)
?Subroutine6:
          CFI Block cfiCond32 Using cfiCommon0
          CFI Function OLED_FillPart
          CFI Conditional ??CrossCallReturnLabel_10
          CFI R4L Frame(CFA, -36)
          CFI R4H Frame(CFA, -34)
          CFI R5L Frame(CFA, -32)
          CFI R5H Frame(CFA, -30)
          CFI R6L Frame(CFA, -28)
          CFI R6H Frame(CFA, -26)
          CFI R7L Frame(CFA, -24)
          CFI R7H Frame(CFA, -22)
          CFI R8L Frame(CFA, -20)
          CFI R8H Frame(CFA, -18)
          CFI R9L Frame(CFA, -16)
          CFI R9H Frame(CFA, -14)
          CFI R10L Frame(CFA, -12)
          CFI R10H Frame(CFA, -10)
          CFI R11L Frame(CFA, -8)
          CFI R11H Frame(CFA, -6)
          CFI CFA SP+40
          CFI Block cfiCond33 Using cfiCommon0
          CFI (cfiCond33) Function OLED_PrintfAt
          CFI (cfiCond33) Conditional ??CrossCallReturnLabel_11
          CFI (cfiCond33) R4L Frame(CFA, -36)
          CFI (cfiCond33) R4H Frame(CFA, -34)
          CFI (cfiCond33) R5L Frame(CFA, -32)
          CFI (cfiCond33) R5H Frame(CFA, -30)
          CFI (cfiCond33) R6L Frame(CFA, -28)
          CFI (cfiCond33) R6H Frame(CFA, -26)
          CFI (cfiCond33) R7L Frame(CFA, -24)
          CFI (cfiCond33) R7H Frame(CFA, -22)
          CFI (cfiCond33) R8L Frame(CFA, -20)
          CFI (cfiCond33) R8H Frame(CFA, -18)
          CFI (cfiCond33) R9L Frame(CFA, -16)
          CFI (cfiCond33) R9H Frame(CFA, -14)
          CFI (cfiCond33) R10L Frame(CFA, -12)
          CFI (cfiCond33) R10H Frame(CFA, -10)
          CFI (cfiCond33) R11L Frame(CFA, -8)
          CFI (cfiCond33) R11H Frame(CFA, -6)
          CFI (cfiCond33) CFA SP+178
          CFI Block cfiPicker34 Using cfiCommon1
          CFI (cfiPicker34) NoFunction
          CFI (cfiPicker34) Picker
        CALLA   #?Subroutine24
??CrossCallReturnLabel_39:
        MOVX.B  R15, &row_position
        RETA
          CFI EndBlock cfiCond32
          CFI EndBlock cfiCond33
          CFI EndBlock cfiPicker34

        RSEG `CODE`:CODE:NOROOT(1)
OLED_Printf:
          CFI Block cfiBlock35 Using cfiCommon0
          CFI Function OLED_Printf
        PUSHM.A #0x8, R11
          CFI R4L Frame(CFA, -36)
          CFI R4H Frame(CFA, -34)
          CFI R5L Frame(CFA, -32)
          CFI R5H Frame(CFA, -30)
          CFI R6L Frame(CFA, -28)
          CFI R6H Frame(CFA, -26)
          CFI R7L Frame(CFA, -24)
          CFI R7H Frame(CFA, -22)
          CFI R8L Frame(CFA, -20)
          CFI R8H Frame(CFA, -18)
          CFI R9L Frame(CFA, -16)
          CFI R9H Frame(CFA, -14)
          CFI R10L Frame(CFA, -12)
          CFI R10H Frame(CFA, -10)
          CFI R11L Frame(CFA, -8)
          CFI R11H Frame(CFA, -6)
          CFI CFA SP+36
        PUSH.B  R12
          CFI CFA SP+38
        SUBA    #0x8a, SP
          CFI CFA SP+176
        MOVA    SP, R15
        ADDA    #0xb0, R15
        MOVA    R15, 0x6(SP)
        MOVA    SP, R7
        ADDA    #0xa, R7
        PUSHM.A #0x1, R15
          CFI CFA SP+180
        MOVA    R7, R12
          CFI FunCall vsprintf
        CALLA   #vsprintf
        MOV.B   #0x0, R8
        MOVA    R7, R12
          CFI FunCall strlen
        CALLA   #strlen
        MOV.W   R12, 0x6(SP)
        MOV.B   0x8e(SP), R9
        ADDA    R9, R9
        MOVA    R9, R11
        ADDA    R9, R9
        ADDA    R11, R9
        MOV.W   #0x80, R12
        MOVX.B  Font(R9), R14
          CFI FunCall ?DivMod16s
        CALLA   #?DivMod16s
        MOV.W   R12, R5
        MOV.W   #0x0, R4
        ADDA    #0x4, SP
          CFI CFA SP+176
        CMP.W   #0x0, 0x2(SP)
        JL      ??OLED_Printf_10
        MOV.W   #0x40, R12
        MOVX.B  Font + 1(R9), R14
        CALLA   #??Subroutine17_0
??CrossCallReturnLabel_54:
        MOV.W   R12, 0x4(SP)
        MOVA    #row_position, R6
        MOVA    #??y, R11
        MOVA    #??x, R10
??OLED_Printf_2:
        MOV.W   R4, R15
        RLAM.A  #0x4, R15
        RRAM.A  #0x4, R15
        ADDA    R7, R15
        MOV.B   @R15, R15
        CMP.B   #0xa, R15
        JNE     ??OLED_Printf_11
        MOV.B   R4, 0(SP)
        JMP     ??OLED_Printf_7
??OLED_Printf_0:
        PUSH.B  R5
          CFI CFA SP+178
        CALLA   #?Subroutine21
??CrossCallReturnLabel_37:
        MOVX.B  Font + 1(R9), R14
        MOV.B   R14, R15
        RRUM.W  #0x3, R15
        ADD.B   R15, 0(R11)
        CALLA   #?Subroutine17
??CrossCallReturnLabel_57:
        MOV.B   @R11, R15
        ADDA    #0x2, SP
          CFI CFA SP+176
        CMP.W   R15, R12
        JGE     ??OLED_Printf_12
        MOV.B   #0x0, 0(R11)
          CFI FunCall OLED_Clear
        CALLA   #OLED_Clear
??OLED_Printf_12:
        MOV.B   #0x0, 0(R10)
        ADD.B   R5, R8
??OLED_Printf_7:
        CMP.B   R4, R8
        JC      ??OLED_Printf_13
        MOVA    R7, R15
        ADDA    R8, R15
        MOV.B   R4, R14
        SUB.W   R8, R14
        CMP.W   R14, R5
        JL      ??OLED_Printf_0
        MOV.B   R4, R14
        SUB.B   R8, R14
        MOV.B   R14, R8
        PUSH.B  R14
          CFI CFA SP+178
        CALLA   #?Subroutine21
??CrossCallReturnLabel_36:
        PUSH.W  SR
          CFI CFA SP+180
        DINT
        NOP
        MOV.B   R8, &__iar_HWMUL               // MPY
        MOVX.B  Font(R9), &__iar_HWMUL + 8     // OP2
        ADD.B   &__iar_HWMUL + 10, 0(R10)      // RESLO
        NOP
        POP.W   SR
          CFI CFA SP+178
        ADDA    #0x2, SP
          CFI CFA SP+176
        JMP     ??OLED_Printf_8
??OLED_Printf_1:
        CALLA   #?Subroutine3
??CrossCallReturnLabel_62:
        PUSHM.W #0x2, R13
          CFI CFA SP+180
        POPM.A  #0x1, R14
          CFI CFA SP+176
        MOV.B   @R6, R15
        CALLA   #?Subroutine14
??CrossCallReturnLabel_25:
        CALLA   #?Subroutine13
??CrossCallReturnLabel_21:
        CALLA   #?Subroutine1
??CrossCallReturnLabel_52:
        ADD.B   #0x1, 0(R10)
??OLED_Printf_8:
        MOV.B   @R10, R8
        CMP.B   #0x80, R8
        JNC     ??OLED_Printf_1
??OLED_Printf_13:
        MOV.B   R4, R8
        ADD.B   #0x1, R8
        MOV.B   #0x0, 0(R10)
        MOVX.B  Font + 1(R9), R14
        RRUM.W  #0x3, R14
        ADD.B   R14, 0(R11)
        MOV.B   @R11, R15
        CMP.W   R15, 0x4(SP)
        JGE     ??OLED_Printf_11
        MOV.B   #0x0, 0(R11)
          CFI FunCall OLED_Clear
        CALLA   #OLED_Clear
??OLED_Printf_11:
        ADD.W   #0x1, R4
        CMP.W   R4, 0x2(SP)
        JGE     ??OLED_Printf_2
??OLED_Printf_10:
        CMP.W   0x2(SP), R8
        JGE     ??OLED_Printf_14
        MOV.B   0x2(SP), R6
        SUB.B   R8, R6
        MOVA    #??y, R11
        MOVA    #??x, R10
        PUSH.B  R6
          CFI CFA SP+178
        ADDA    R8, R7
        MOVA    R7, R15
        CALLA   #?Subroutine21
??CrossCallReturnLabel_35:
        MOVX.B  Font(R9), R4
        PUSH.W  SR
          CFI CFA SP+180
        DINT
        NOP
        MOV.B   R6, &__iar_HWMUL               // MPY
        MOV.B   R4, &__iar_HWMUL + 8           // OP2
        ADD.B   &__iar_HWMUL + 10, 0(R10)      // RESLO
        NOP
        POP.W   SR
          CFI CFA SP+178
        MOVX.B  Font + 1(R9), R8
        MOV.W   #0x40, R12
        MOV.B   R8, R14
          CFI FunCall ?DivMod16s
        CALLA   #?DivMod16s
        MOV.W   R12, R7
        ADD.W   #0xffff, R7
        RRUM.W  #0x3, R8
        PUSH.W  SR
          CFI CFA SP+180
        DINT
        NOP
        MOV.B   R4, &__iar_HWMUL               // MPY
        MOV.W   R5, &__iar_HWMUL + 8           // OP2
        MOV.W   &__iar_HWMUL + 10, R9          // RESLO
        NOP
        MOV.W   @SP, SR
        NOP
        DINT
        NOP
        MOV.B   R5, &__iar_HWMUL               // MPY
        MOV.B   R4, &__iar_HWMUL + 8           // OP2
        MOV.B   &__iar_HWMUL + 10, R6          // RESLO
        NOP
        POP.W   SR
          CFI CFA SP+178
        ADDA    #0x2, SP
          CFI CFA SP+176
        JMP     ??OLED_Printf_9
??OLED_Printf_3:
        SUB.B   R6, 0(R10)
        ADD.B   R8, 0(R11)
        MOV.B   @R11, R15
        CMP.W   R15, R7
        JGE     ??OLED_Printf_9
        MOV.B   #0x0, 0(R11)
        MOV.B   #0x0, 0(R10)
          CFI FunCall OLED_Clear
        CALLA   #OLED_Clear
??OLED_Printf_9:
        MOV.B   @R10, R15
        CMP.W   R9, R15
        JGE     ??OLED_Printf_3
        CMP.B   #0x80, R15
        JC      ??OLED_Printf_14
        MOV.W   #0x80, R11
        SUB.W   R15, R11
        MOVA    #row_position, R6
??OLED_Printf_4:
        CALLA   #?Subroutine3
??CrossCallReturnLabel_63:
        PUSHM.W #0x2, R13
          CFI CFA SP+180
        POPM.A  #0x1, R7
          CFI CFA SP+176
        MOV.B   @R6, R15
        ADDA    R15, R7
        MOVX.B  #0x0, OLED_RAM_DATA(R7)
        CALLA   #?Subroutine13
??CrossCallReturnLabel_22:
        CALLA   #?Subroutine1
??CrossCallReturnLabel_51:
        ADD.W   #0xffff, R11
        JNE     ??OLED_Printf_4
??OLED_Printf_14:
        ADDA    #0x8c, SP
          CFI CFA SP+36
        POPM.A  #0x8, R11
          CFI R10H SameValue
          CFI R11H SameValue
          CFI R4H SameValue
          CFI R5H SameValue
          CFI R6H SameValue
          CFI R7H SameValue
          CFI R8H SameValue
          CFI R9H SameValue
          CFI R10L SameValue
          CFI R11L SameValue
          CFI R4L SameValue
          CFI R5L SameValue
          CFI R6L SameValue
          CFI R7L SameValue
          CFI R8L SameValue
          CFI R9L SameValue
          CFI CFA SP+4
        RETA
          CFI EndBlock cfiBlock35
        REQUIRE _A_PDOUT_L

        RSEG `CODE`:CODE:NOROOT(1)
?Subroutine21:
          CFI Block cfiCond36 Using cfiCommon0
          CFI Function OLED_Printf
          CFI Conditional ??CrossCallReturnLabel_37
          CFI R4L Frame(CFA, -36)
          CFI R4H Frame(CFA, -34)
          CFI R5L Frame(CFA, -32)
          CFI R5H Frame(CFA, -30)
          CFI R6L Frame(CFA, -28)
          CFI R6H Frame(CFA, -26)
          CFI R7L Frame(CFA, -24)
          CFI R7H Frame(CFA, -22)
          CFI R8L Frame(CFA, -20)
          CFI R8H Frame(CFA, -18)
          CFI R9L Frame(CFA, -16)
          CFI R9H Frame(CFA, -14)
          CFI R10L Frame(CFA, -12)
          CFI R10H Frame(CFA, -10)
          CFI R11L Frame(CFA, -8)
          CFI R11H Frame(CFA, -6)
          CFI CFA SP+182
          CFI Block cfiCond37 Using cfiCommon0
          CFI (cfiCond37) Function OLED_Printf
          CFI (cfiCond37) Conditional ??CrossCallReturnLabel_36
          CFI (cfiCond37) R4L Frame(CFA, -36)
          CFI (cfiCond37) R4H Frame(CFA, -34)
          CFI (cfiCond37) R5L Frame(CFA, -32)
          CFI (cfiCond37) R5H Frame(CFA, -30)
          CFI (cfiCond37) R6L Frame(CFA, -28)
          CFI (cfiCond37) R6H Frame(CFA, -26)
          CFI (cfiCond37) R7L Frame(CFA, -24)
          CFI (cfiCond37) R7H Frame(CFA, -22)
          CFI (cfiCond37) R8L Frame(CFA, -20)
          CFI (cfiCond37) R8H Frame(CFA, -18)
          CFI (cfiCond37) R9L Frame(CFA, -16)
          CFI (cfiCond37) R9H Frame(CFA, -14)
          CFI (cfiCond37) R10L Frame(CFA, -12)
          CFI (cfiCond37) R10H Frame(CFA, -10)
          CFI (cfiCond37) R11L Frame(CFA, -8)
          CFI (cfiCond37) R11H Frame(CFA, -6)
          CFI (cfiCond37) CFA SP+182
          CFI Block cfiCond38 Using cfiCommon0
          CFI (cfiCond38) Function OLED_Printf
          CFI (cfiCond38) Conditional ??CrossCallReturnLabel_35
          CFI (cfiCond38) R4L Frame(CFA, -36)
          CFI (cfiCond38) R4H Frame(CFA, -34)
          CFI (cfiCond38) R5L Frame(CFA, -32)
          CFI (cfiCond38) R5H Frame(CFA, -30)
          CFI (cfiCond38) R6L Frame(CFA, -28)
          CFI (cfiCond38) R6H Frame(CFA, -26)
          CFI (cfiCond38) R7L Frame(CFA, -24)
          CFI (cfiCond38) R7H Frame(CFA, -22)
          CFI (cfiCond38) R8L Frame(CFA, -20)
          CFI (cfiCond38) R8H Frame(CFA, -18)
          CFI (cfiCond38) R9L Frame(CFA, -16)
          CFI (cfiCond38) R9H Frame(CFA, -14)
          CFI (cfiCond38) R10L Frame(CFA, -12)
          CFI (cfiCond38) R10H Frame(CFA, -10)
          CFI (cfiCond38) R11L Frame(CFA, -8)
          CFI (cfiCond38) R11H Frame(CFA, -6)
          CFI (cfiCond38) CFA SP+182
          CFI Block cfiPicker39 Using cfiCommon1
          CFI (cfiPicker39) NoFunction
          CFI (cfiPicker39) Picker
        MOV.B   @R10, R14
        MOV.B   @R11, R13
        MOV.B   0x90(SP), R12
          CFI (cfiCond36) TailCall OLED_Printf OLED_DispStringLen
          CFI (cfiCond36) TailCall OLED_Printf OLED_DispStringLen
          CFI (cfiCond36) TailCall OLED_Printf OLED_DispStringLen
        BRA     #OLED_DispStringLen
          CFI EndBlock cfiCond36
          CFI EndBlock cfiCond37
          CFI EndBlock cfiCond38
          CFI EndBlock cfiPicker39

        RSEG `CODE`:CODE:NOROOT(1)
?Subroutine13:
          CFI Block cfiCond40 Using cfiCommon0
          CFI Function OLED_Printf
          CFI Conditional ??CrossCallReturnLabel_21
          CFI R4L Frame(CFA, -36)
          CFI R4H Frame(CFA, -34)
          CFI R5L Frame(CFA, -32)
          CFI R5H Frame(CFA, -30)
          CFI R6L Frame(CFA, -28)
          CFI R6H Frame(CFA, -26)
          CFI R7L Frame(CFA, -24)
          CFI R7H Frame(CFA, -22)
          CFI R8L Frame(CFA, -20)
          CFI R8H Frame(CFA, -18)
          CFI R9L Frame(CFA, -16)
          CFI R9H Frame(CFA, -14)
          CFI R10L Frame(CFA, -12)
          CFI R10H Frame(CFA, -10)
          CFI R11L Frame(CFA, -8)
          CFI R11H Frame(CFA, -6)
          CFI CFA SP+180
          CFI Block cfiCond41 Using cfiCommon0
          CFI (cfiCond41) Function OLED_Printf
          CFI (cfiCond41) Conditional ??CrossCallReturnLabel_22
          CFI (cfiCond41) R4L Frame(CFA, -36)
          CFI (cfiCond41) R4H Frame(CFA, -34)
          CFI (cfiCond41) R5L Frame(CFA, -32)
          CFI (cfiCond41) R5H Frame(CFA, -30)
          CFI (cfiCond41) R6L Frame(CFA, -28)
          CFI (cfiCond41) R6H Frame(CFA, -26)
          CFI (cfiCond41) R7L Frame(CFA, -24)
          CFI (cfiCond41) R7H Frame(CFA, -22)
          CFI (cfiCond41) R8L Frame(CFA, -20)
          CFI (cfiCond41) R8H Frame(CFA, -18)
          CFI (cfiCond41) R9L Frame(CFA, -16)
          CFI (cfiCond41) R9H Frame(CFA, -14)
          CFI (cfiCond41) R10L Frame(CFA, -12)
          CFI (cfiCond41) R10H Frame(CFA, -10)
          CFI (cfiCond41) R11L Frame(CFA, -8)
          CFI (cfiCond41) R11H Frame(CFA, -6)
          CFI (cfiCond41) CFA SP+180
          CFI Block cfiPicker42 Using cfiCommon1
          CFI (cfiPicker42) NoFunction
          CFI (cfiPicker42) Picker
        MOV.B   @R6, R14
        ADD.B   #0x1, R14
        CMP.B   #0x80, R14
        JNC     ??OLED_Printf_5
        MOV.B   #0x0, R14
        ADDX.B  #0x1, &line_position
??OLED_Printf_5:
        RETA
          CFI EndBlock cfiCond40
          CFI EndBlock cfiCond41
          CFI EndBlock cfiPicker42

        RSEG `CODE`:CODE:NOROOT(1)
?Subroutine3:
          CFI Block cfiCond43 Using cfiCommon0
          CFI Function OLED_Printf
          CFI Conditional ??CrossCallReturnLabel_62
          CFI R4L Frame(CFA, -36)
          CFI R4H Frame(CFA, -34)
          CFI R5L Frame(CFA, -32)
          CFI R5H Frame(CFA, -30)
          CFI R6L Frame(CFA, -28)
          CFI R6H Frame(CFA, -26)
          CFI R7L Frame(CFA, -24)
          CFI R7H Frame(CFA, -22)
          CFI R8L Frame(CFA, -20)
          CFI R8H Frame(CFA, -18)
          CFI R9L Frame(CFA, -16)
          CFI R9H Frame(CFA, -14)
          CFI R10L Frame(CFA, -12)
          CFI R10H Frame(CFA, -10)
          CFI R11L Frame(CFA, -8)
          CFI R11H Frame(CFA, -6)
          CFI CFA SP+180
          CFI Block cfiCond44 Using cfiCommon0
          CFI (cfiCond44) Function OLED_Printf
          CFI (cfiCond44) Conditional ??CrossCallReturnLabel_63
          CFI (cfiCond44) R4L Frame(CFA, -36)
          CFI (cfiCond44) R4H Frame(CFA, -34)
          CFI (cfiCond44) R5L Frame(CFA, -32)
          CFI (cfiCond44) R5H Frame(CFA, -30)
          CFI (cfiCond44) R6L Frame(CFA, -28)
          CFI (cfiCond44) R6H Frame(CFA, -26)
          CFI (cfiCond44) R7L Frame(CFA, -24)
          CFI (cfiCond44) R7H Frame(CFA, -22)
          CFI (cfiCond44) R8L Frame(CFA, -20)
          CFI (cfiCond44) R8H Frame(CFA, -18)
          CFI (cfiCond44) R9L Frame(CFA, -16)
          CFI (cfiCond44) R9H Frame(CFA, -14)
          CFI (cfiCond44) R10L Frame(CFA, -12)
          CFI (cfiCond44) R10H Frame(CFA, -10)
          CFI (cfiCond44) R11L Frame(CFA, -8)
          CFI (cfiCond44) R11H Frame(CFA, -6)
          CFI (cfiCond44) CFA SP+180
          CFI Block cfiPicker45 Using cfiCommon1
          CFI (cfiPicker45) NoFunction
          CFI (cfiPicker45) Picker
        BIS.B   #0x4, &0x263
          CFI EndBlock cfiCond43
          CFI EndBlock cfiCond44
          CFI EndBlock cfiPicker45
        REQUIRE ?Subroutine23
        // Fall through to label ?Subroutine23

        RSEG `CODE`:CODE:NOROOT(1)
?Subroutine23:
          CFI Block cfiCond46 Using cfiCommon0
          CFI Function OLED_FillPart
          CFI Conditional ??CrossCallReturnLabel_3
          CFI R4L Frame(CFA, -36)
          CFI R4H Frame(CFA, -34)
          CFI R5L Frame(CFA, -32)
          CFI R5H Frame(CFA, -30)
          CFI R6L Frame(CFA, -28)
          CFI R6H Frame(CFA, -26)
          CFI R7L Frame(CFA, -24)
          CFI R7H Frame(CFA, -22)
          CFI R8L Frame(CFA, -20)
          CFI R8H Frame(CFA, -18)
          CFI R9L Frame(CFA, -16)
          CFI R9H Frame(CFA, -14)
          CFI R10L Frame(CFA, -12)
          CFI R10H Frame(CFA, -10)
          CFI R11L Frame(CFA, -8)
          CFI R11H Frame(CFA, -6)
          CFI CFA SP+40
          CFI Block cfiCond47 Using cfiCommon0
          CFI (cfiCond47) Function OLED_DispChar
          CFI (cfiCond47) Conditional ??CrossCallReturnLabel_2
          CFI (cfiCond47) R4L Frame(CFA, -36)
          CFI (cfiCond47) R4H Frame(CFA, -34)
          CFI (cfiCond47) R5L Frame(CFA, -32)
          CFI (cfiCond47) R5H Frame(CFA, -30)
          CFI (cfiCond47) R6L Frame(CFA, -28)
          CFI (cfiCond47) R6H Frame(CFA, -26)
          CFI (cfiCond47) R7L Frame(CFA, -24)
          CFI (cfiCond47) R7H Frame(CFA, -22)
          CFI (cfiCond47) R8L Frame(CFA, -20)
          CFI (cfiCond47) R8H Frame(CFA, -18)
          CFI (cfiCond47) R9L Frame(CFA, -16)
          CFI (cfiCond47) R9H Frame(CFA, -14)
          CFI (cfiCond47) R10L Frame(CFA, -12)
          CFI (cfiCond47) R10H Frame(CFA, -10)
          CFI (cfiCond47) R11L Frame(CFA, -8)
          CFI (cfiCond47) R11H Frame(CFA, -6)
          CFI (cfiCond47) CFA SP+40
          CFI Block cfiCond48 Using cfiCommon0
          CFI (cfiCond48) Function OLED_DispChineseAt
          CFI (cfiCond48) Conditional ??CrossCallReturnLabel_1
          CFI (cfiCond48) R4L Frame(CFA, -36)
          CFI (cfiCond48) R4H Frame(CFA, -34)
          CFI (cfiCond48) R5L Frame(CFA, -32)
          CFI (cfiCond48) R5H Frame(CFA, -30)
          CFI (cfiCond48) R6L Frame(CFA, -28)
          CFI (cfiCond48) R6H Frame(CFA, -26)
          CFI (cfiCond48) R7L Frame(CFA, -24)
          CFI (cfiCond48) R7H Frame(CFA, -22)
          CFI (cfiCond48) R8L Frame(CFA, -20)
          CFI (cfiCond48) R8H Frame(CFA, -18)
          CFI (cfiCond48) R9L Frame(CFA, -16)
          CFI (cfiCond48) R9H Frame(CFA, -14)
          CFI (cfiCond48) R10L Frame(CFA, -12)
          CFI (cfiCond48) R10H Frame(CFA, -10)
          CFI (cfiCond48) R11L Frame(CFA, -8)
          CFI (cfiCond48) R11H Frame(CFA, -6)
          CFI (cfiCond48) CFA SP+40
          CFI Block cfiCond49 Using cfiCommon0
          CFI (cfiCond49) Function OLED_PrintfAt
          CFI (cfiCond49) Conditional ??CrossCallReturnLabel_0
          CFI (cfiCond49) R4L Frame(CFA, -36)
          CFI (cfiCond49) R4H Frame(CFA, -34)
          CFI (cfiCond49) R5L Frame(CFA, -32)
          CFI (cfiCond49) R5H Frame(CFA, -30)
          CFI (cfiCond49) R6L Frame(CFA, -28)
          CFI (cfiCond49) R6H Frame(CFA, -26)
          CFI (cfiCond49) R7L Frame(CFA, -24)
          CFI (cfiCond49) R7H Frame(CFA, -22)
          CFI (cfiCond49) R8L Frame(CFA, -20)
          CFI (cfiCond49) R8H Frame(CFA, -18)
          CFI (cfiCond49) R9L Frame(CFA, -16)
          CFI (cfiCond49) R9H Frame(CFA, -14)
          CFI (cfiCond49) R10L Frame(CFA, -12)
          CFI (cfiCond49) R10H Frame(CFA, -10)
          CFI (cfiCond49) R11L Frame(CFA, -8)
          CFI (cfiCond49) R11H Frame(CFA, -6)
          CFI (cfiCond49) CFA SP+178
          CFI Block cfiCond50 Using cfiCommon0
          CFI (cfiCond50) Function OLED_Printf
          CFI (cfiCond50) Conditional ??CrossCallReturnLabel_62
          CFI (cfiCond50) R4L Frame(CFA, -36)
          CFI (cfiCond50) R4H Frame(CFA, -34)
          CFI (cfiCond50) R5L Frame(CFA, -32)
          CFI (cfiCond50) R5H Frame(CFA, -30)
          CFI (cfiCond50) R6L Frame(CFA, -28)
          CFI (cfiCond50) R6H Frame(CFA, -26)
          CFI (cfiCond50) R7L Frame(CFA, -24)
          CFI (cfiCond50) R7H Frame(CFA, -22)
          CFI (cfiCond50) R8L Frame(CFA, -20)
          CFI (cfiCond50) R8H Frame(CFA, -18)
          CFI (cfiCond50) R9L Frame(CFA, -16)
          CFI (cfiCond50) R9H Frame(CFA, -14)
          CFI (cfiCond50) R10L Frame(CFA, -12)
          CFI (cfiCond50) R10H Frame(CFA, -10)
          CFI (cfiCond50) R11L Frame(CFA, -8)
          CFI (cfiCond50) R11H Frame(CFA, -6)
          CFI (cfiCond50) CFA SP+180
          CFI Block cfiCond51 Using cfiCommon0
          CFI (cfiCond51) Function OLED_Printf
          CFI (cfiCond51) Conditional ??CrossCallReturnLabel_63
          CFI (cfiCond51) R4L Frame(CFA, -36)
          CFI (cfiCond51) R4H Frame(CFA, -34)
          CFI (cfiCond51) R5L Frame(CFA, -32)
          CFI (cfiCond51) R5H Frame(CFA, -30)
          CFI (cfiCond51) R6L Frame(CFA, -28)
          CFI (cfiCond51) R6H Frame(CFA, -26)
          CFI (cfiCond51) R7L Frame(CFA, -24)
          CFI (cfiCond51) R7H Frame(CFA, -22)
          CFI (cfiCond51) R8L Frame(CFA, -20)
          CFI (cfiCond51) R8H Frame(CFA, -18)
          CFI (cfiCond51) R9L Frame(CFA, -16)
          CFI (cfiCond51) R9H Frame(CFA, -14)
          CFI (cfiCond51) R10L Frame(CFA, -12)
          CFI (cfiCond51) R10H Frame(CFA, -10)
          CFI (cfiCond51) R11L Frame(CFA, -8)
          CFI (cfiCond51) R11H Frame(CFA, -6)
          CFI (cfiCond51) CFA SP+180
          CFI Block cfiCond52 Using cfiCommon0
          CFI (cfiCond52) Function OLED_WriteByte
          CFI (cfiCond52) Conditional ??CrossCallReturnLabel_61
          CFI (cfiCond52) CFA SP+8
          CFI Block cfiPicker53 Using cfiCommon1
          CFI (cfiPicker53) NoFunction
          CFI (cfiPicker53) Picker
        MOVX.B  &line_position, R12
          CFI EndBlock cfiCond46
          CFI EndBlock cfiCond47
          CFI EndBlock cfiCond48
          CFI EndBlock cfiCond49
          CFI EndBlock cfiCond50
          CFI EndBlock cfiCond51
          CFI EndBlock cfiCond52
          CFI EndBlock cfiPicker53
        REQUIRE ??Subroutine23_1
        // Fall through to label ??Subroutine23_1

        RSEG `CODE`:CODE:REORDER:NOROOT(1)
??Subroutine23_1:
          CFI Block cfiCond54 Using cfiCommon0
          CFI Function OLED_DrawPoint
          CFI Conditional ??CrossCallReturnLabel_58
          CFI R8L Frame(CFA, -20)
          CFI R8H Frame(CFA, -18)
          CFI R9L Frame(CFA, -16)
          CFI R9H Frame(CFA, -14)
          CFI R10L Frame(CFA, -12)
          CFI R10H Frame(CFA, -10)
          CFI R11L Frame(CFA, -8)
          CFI R11H Frame(CFA, -6)
          CFI CFA SP+24
          CFI Block cfiCond55 Using cfiCommon0
          CFI (cfiCond55) Function OLED_FillPart
          CFI (cfiCond55) Conditional ??CrossCallReturnLabel_59
          CFI (cfiCond55) R4L Frame(CFA, -36)
          CFI (cfiCond55) R4H Frame(CFA, -34)
          CFI (cfiCond55) R5L Frame(CFA, -32)
          CFI (cfiCond55) R5H Frame(CFA, -30)
          CFI (cfiCond55) R6L Frame(CFA, -28)
          CFI (cfiCond55) R6H Frame(CFA, -26)
          CFI (cfiCond55) R7L Frame(CFA, -24)
          CFI (cfiCond55) R7H Frame(CFA, -22)
          CFI (cfiCond55) R8L Frame(CFA, -20)
          CFI (cfiCond55) R8H Frame(CFA, -18)
          CFI (cfiCond55) R9L Frame(CFA, -16)
          CFI (cfiCond55) R9H Frame(CFA, -14)
          CFI (cfiCond55) R10L Frame(CFA, -12)
          CFI (cfiCond55) R10H Frame(CFA, -10)
          CFI (cfiCond55) R11L Frame(CFA, -8)
          CFI (cfiCond55) R11H Frame(CFA, -6)
          CFI (cfiCond55) CFA SP+40
          CFI Block cfiCond56 Using cfiCommon0
          CFI (cfiCond56) Function OLED_Clear
          CFI (cfiCond56) Conditional ??CrossCallReturnLabel_60
          CFI (cfiCond56) R6L Frame(CFA, -28)
          CFI (cfiCond56) R6H Frame(CFA, -26)
          CFI (cfiCond56) R7L Frame(CFA, -24)
          CFI (cfiCond56) R7H Frame(CFA, -22)
          CFI (cfiCond56) R8L Frame(CFA, -20)
          CFI (cfiCond56) R8H Frame(CFA, -18)
          CFI (cfiCond56) R9L Frame(CFA, -16)
          CFI (cfiCond56) R9H Frame(CFA, -14)
          CFI (cfiCond56) R10L Frame(CFA, -12)
          CFI (cfiCond56) R10H Frame(CFA, -10)
          CFI (cfiCond56) R11L Frame(CFA, -8)
          CFI (cfiCond56) R11H Frame(CFA, -6)
          CFI (cfiCond56) CFA SP+32
          CFI Block cfiCond57 Using cfiCommon0
          CFI (cfiCond57) Function OLED_FillPart
          CFI (cfiCond57) Conditional ??CrossCallReturnLabel_3
          CFI (cfiCond57) R4L Frame(CFA, -36)
          CFI (cfiCond57) R4H Frame(CFA, -34)
          CFI (cfiCond57) R5L Frame(CFA, -32)
          CFI (cfiCond57) R5H Frame(CFA, -30)
          CFI (cfiCond57) R6L Frame(CFA, -28)
          CFI (cfiCond57) R6H Frame(CFA, -26)
          CFI (cfiCond57) R7L Frame(CFA, -24)
          CFI (cfiCond57) R7H Frame(CFA, -22)
          CFI (cfiCond57) R8L Frame(CFA, -20)
          CFI (cfiCond57) R8H Frame(CFA, -18)
          CFI (cfiCond57) R9L Frame(CFA, -16)
          CFI (cfiCond57) R9H Frame(CFA, -14)
          CFI (cfiCond57) R10L Frame(CFA, -12)
          CFI (cfiCond57) R10H Frame(CFA, -10)
          CFI (cfiCond57) R11L Frame(CFA, -8)
          CFI (cfiCond57) R11H Frame(CFA, -6)
          CFI (cfiCond57) CFA SP+40
          CFI Block cfiCond58 Using cfiCommon0
          CFI (cfiCond58) Function OLED_DispChar
          CFI (cfiCond58) Conditional ??CrossCallReturnLabel_2
          CFI (cfiCond58) R4L Frame(CFA, -36)
          CFI (cfiCond58) R4H Frame(CFA, -34)
          CFI (cfiCond58) R5L Frame(CFA, -32)
          CFI (cfiCond58) R5H Frame(CFA, -30)
          CFI (cfiCond58) R6L Frame(CFA, -28)
          CFI (cfiCond58) R6H Frame(CFA, -26)
          CFI (cfiCond58) R7L Frame(CFA, -24)
          CFI (cfiCond58) R7H Frame(CFA, -22)
          CFI (cfiCond58) R8L Frame(CFA, -20)
          CFI (cfiCond58) R8H Frame(CFA, -18)
          CFI (cfiCond58) R9L Frame(CFA, -16)
          CFI (cfiCond58) R9H Frame(CFA, -14)
          CFI (cfiCond58) R10L Frame(CFA, -12)
          CFI (cfiCond58) R10H Frame(CFA, -10)
          CFI (cfiCond58) R11L Frame(CFA, -8)
          CFI (cfiCond58) R11H Frame(CFA, -6)
          CFI (cfiCond58) CFA SP+40
          CFI Block cfiCond59 Using cfiCommon0
          CFI (cfiCond59) Function OLED_DispChineseAt
          CFI (cfiCond59) Conditional ??CrossCallReturnLabel_1
          CFI (cfiCond59) R4L Frame(CFA, -36)
          CFI (cfiCond59) R4H Frame(CFA, -34)
          CFI (cfiCond59) R5L Frame(CFA, -32)
          CFI (cfiCond59) R5H Frame(CFA, -30)
          CFI (cfiCond59) R6L Frame(CFA, -28)
          CFI (cfiCond59) R6H Frame(CFA, -26)
          CFI (cfiCond59) R7L Frame(CFA, -24)
          CFI (cfiCond59) R7H Frame(CFA, -22)
          CFI (cfiCond59) R8L Frame(CFA, -20)
          CFI (cfiCond59) R8H Frame(CFA, -18)
          CFI (cfiCond59) R9L Frame(CFA, -16)
          CFI (cfiCond59) R9H Frame(CFA, -14)
          CFI (cfiCond59) R10L Frame(CFA, -12)
          CFI (cfiCond59) R10H Frame(CFA, -10)
          CFI (cfiCond59) R11L Frame(CFA, -8)
          CFI (cfiCond59) R11H Frame(CFA, -6)
          CFI (cfiCond59) CFA SP+40
          CFI Block cfiCond60 Using cfiCommon0
          CFI (cfiCond60) Function OLED_PrintfAt
          CFI (cfiCond60) Conditional ??CrossCallReturnLabel_0
          CFI (cfiCond60) R4L Frame(CFA, -36)
          CFI (cfiCond60) R4H Frame(CFA, -34)
          CFI (cfiCond60) R5L Frame(CFA, -32)
          CFI (cfiCond60) R5H Frame(CFA, -30)
          CFI (cfiCond60) R6L Frame(CFA, -28)
          CFI (cfiCond60) R6H Frame(CFA, -26)
          CFI (cfiCond60) R7L Frame(CFA, -24)
          CFI (cfiCond60) R7H Frame(CFA, -22)
          CFI (cfiCond60) R8L Frame(CFA, -20)
          CFI (cfiCond60) R8H Frame(CFA, -18)
          CFI (cfiCond60) R9L Frame(CFA, -16)
          CFI (cfiCond60) R9H Frame(CFA, -14)
          CFI (cfiCond60) R10L Frame(CFA, -12)
          CFI (cfiCond60) R10H Frame(CFA, -10)
          CFI (cfiCond60) R11L Frame(CFA, -8)
          CFI (cfiCond60) R11H Frame(CFA, -6)
          CFI (cfiCond60) CFA SP+178
          CFI Block cfiCond61 Using cfiCommon0
          CFI (cfiCond61) Function OLED_Printf
          CFI (cfiCond61) Conditional ??CrossCallReturnLabel_62
          CFI (cfiCond61) R4L Frame(CFA, -36)
          CFI (cfiCond61) R4H Frame(CFA, -34)
          CFI (cfiCond61) R5L Frame(CFA, -32)
          CFI (cfiCond61) R5H Frame(CFA, -30)
          CFI (cfiCond61) R6L Frame(CFA, -28)
          CFI (cfiCond61) R6H Frame(CFA, -26)
          CFI (cfiCond61) R7L Frame(CFA, -24)
          CFI (cfiCond61) R7H Frame(CFA, -22)
          CFI (cfiCond61) R8L Frame(CFA, -20)
          CFI (cfiCond61) R8H Frame(CFA, -18)
          CFI (cfiCond61) R9L Frame(CFA, -16)
          CFI (cfiCond61) R9H Frame(CFA, -14)
          CFI (cfiCond61) R10L Frame(CFA, -12)
          CFI (cfiCond61) R10H Frame(CFA, -10)
          CFI (cfiCond61) R11L Frame(CFA, -8)
          CFI (cfiCond61) R11H Frame(CFA, -6)
          CFI (cfiCond61) CFA SP+180
          CFI Block cfiCond62 Using cfiCommon0
          CFI (cfiCond62) Function OLED_Printf
          CFI (cfiCond62) Conditional ??CrossCallReturnLabel_63
          CFI (cfiCond62) R4L Frame(CFA, -36)
          CFI (cfiCond62) R4H Frame(CFA, -34)
          CFI (cfiCond62) R5L Frame(CFA, -32)
          CFI (cfiCond62) R5H Frame(CFA, -30)
          CFI (cfiCond62) R6L Frame(CFA, -28)
          CFI (cfiCond62) R6H Frame(CFA, -26)
          CFI (cfiCond62) R7L Frame(CFA, -24)
          CFI (cfiCond62) R7H Frame(CFA, -22)
          CFI (cfiCond62) R8L Frame(CFA, -20)
          CFI (cfiCond62) R8H Frame(CFA, -18)
          CFI (cfiCond62) R9L Frame(CFA, -16)
          CFI (cfiCond62) R9H Frame(CFA, -14)
          CFI (cfiCond62) R10L Frame(CFA, -12)
          CFI (cfiCond62) R10H Frame(CFA, -10)
          CFI (cfiCond62) R11L Frame(CFA, -8)
          CFI (cfiCond62) R11H Frame(CFA, -6)
          CFI (cfiCond62) CFA SP+180
          CFI Block cfiCond63 Using cfiCommon0
          CFI (cfiCond63) Function OLED_WriteByte
          CFI (cfiCond63) Conditional ??CrossCallReturnLabel_61
          CFI (cfiCond63) CFA SP+8
          CFI Block cfiPicker64 Using cfiCommon1
          CFI (cfiPicker64) NoFunction
          CFI (cfiPicker64) Picker
        MOV.W   #0x0, R13
          CFI (cfiCond54) TailCall OLED_DrawPoint ?ShiftLeft32_7
          CFI (cfiCond55) TailCall OLED_FillPart ?ShiftLeft32_7
          CFI (cfiCond56) TailCall OLED_Clear ?ShiftLeft32_7
          CFI (cfiCond55) TailCall OLED_FillPart ?ShiftLeft32_7
          CFI (cfiCond58) TailCall OLED_DispChar ?ShiftLeft32_7
          CFI (cfiCond59) TailCall OLED_DispChineseAt ?ShiftLeft32_7
          CFI (cfiCond60) TailCall OLED_PrintfAt ?ShiftLeft32_7
          CFI (cfiCond61) TailCall OLED_Printf ?ShiftLeft32_7
          CFI (cfiCond61) TailCall OLED_Printf ?ShiftLeft32_7
          CFI (cfiCond63) TailCall OLED_WriteByte ?ShiftLeft32_7
        BRA     #?ShiftLeft32_7
          CFI EndBlock cfiCond54
          CFI EndBlock cfiCond55
          CFI EndBlock cfiCond56
          CFI EndBlock cfiCond57
          CFI EndBlock cfiCond58
          CFI EndBlock cfiCond59
          CFI EndBlock cfiCond60
          CFI EndBlock cfiCond61
          CFI EndBlock cfiCond62
          CFI EndBlock cfiCond63
          CFI EndBlock cfiPicker64

        RSEG `CODE`:CODE:REORDER:NOROOT(1)
OLED_SetPosition:
          CFI Block cfiBlock65 Using cfiCommon0
          CFI Function OLED_SetPosition
          CFI NoCalls
        PUSHM.A #0x2, R11
          CFI R10L Frame(CFA, -12)
          CFI R10H Frame(CFA, -10)
          CFI R11L Frame(CFA, -8)
          CFI R11H Frame(CFA, -6)
          CFI CFA SP+12
        MOV.B   R12, R10
        MOV.B   R13, R11
        MOV.B   R12, R13
        CALLA   #?Subroutine7
??CrossCallReturnLabel_41:
        MOV.B   R11, R13
        AND.B   #0xf, R13
        CALLA   #?Subroutine25
??CrossCallReturnLabel_45:
        MOV.B   R11, R13
        RRUM.W  #0x4, R13
        BIS.B   #0x10, R13
        CALLA   #?Subroutine25
??CrossCallReturnLabel_44:
        MOVX.B  R10, &line_position
        MOVX.B  R11, &row_position
        POPM.A  #0x2, R11
          CFI R10H SameValue
          CFI R11H SameValue
          CFI R10L SameValue
          CFI R11L SameValue
          CFI CFA SP+4
        RETA
          CFI EndBlock cfiBlock65

        RSEG `CODE`:CODE:NOROOT(1)
?Subroutine25:
          CFI Block cfiCond66 Using cfiCommon0
          CFI Function OLED_SetPosition
          CFI Conditional ??CrossCallReturnLabel_45
          CFI R10L Frame(CFA, -12)
          CFI R10H Frame(CFA, -10)
          CFI R11L Frame(CFA, -8)
          CFI R11H Frame(CFA, -6)
          CFI CFA SP+16
          CFI Block cfiCond67 Using cfiCommon0
          CFI (cfiCond67) Function OLED_SetPosition
          CFI (cfiCond67) Conditional ??CrossCallReturnLabel_44
          CFI (cfiCond67) R10L Frame(CFA, -12)
          CFI (cfiCond67) R10H Frame(CFA, -10)
          CFI (cfiCond67) R11L Frame(CFA, -8)
          CFI (cfiCond67) R11H Frame(CFA, -6)
          CFI (cfiCond67) CFA SP+16
          CFI Block cfiCond68 Using cfiCommon0
          CFI (cfiCond68) Function OLED_Clear
          CFI (cfiCond68) Conditional ??CrossCallReturnLabel_43
          CFI (cfiCond68) R6L Frame(CFA, -28)
          CFI (cfiCond68) R6H Frame(CFA, -26)
          CFI (cfiCond68) R7L Frame(CFA, -24)
          CFI (cfiCond68) R7H Frame(CFA, -22)
          CFI (cfiCond68) R8L Frame(CFA, -20)
          CFI (cfiCond68) R8H Frame(CFA, -18)
          CFI (cfiCond68) R9L Frame(CFA, -16)
          CFI (cfiCond68) R9H Frame(CFA, -14)
          CFI (cfiCond68) R10L Frame(CFA, -12)
          CFI (cfiCond68) R10H Frame(CFA, -10)
          CFI (cfiCond68) R11L Frame(CFA, -8)
          CFI (cfiCond68) R11H Frame(CFA, -6)
          CFI (cfiCond68) CFA SP+32
          CFI Block cfiCond69 Using cfiCommon0
          CFI (cfiCond69) Function OLED_Clear
          CFI (cfiCond69) Conditional ??CrossCallReturnLabel_42
          CFI (cfiCond69) R6L Frame(CFA, -28)
          CFI (cfiCond69) R6H Frame(CFA, -26)
          CFI (cfiCond69) R7L Frame(CFA, -24)
          CFI (cfiCond69) R7H Frame(CFA, -22)
          CFI (cfiCond69) R8L Frame(CFA, -20)
          CFI (cfiCond69) R8H Frame(CFA, -18)
          CFI (cfiCond69) R9L Frame(CFA, -16)
          CFI (cfiCond69) R9H Frame(CFA, -14)
          CFI (cfiCond69) R10L Frame(CFA, -12)
          CFI (cfiCond69) R10H Frame(CFA, -10)
          CFI (cfiCond69) R11L Frame(CFA, -8)
          CFI (cfiCond69) R11H Frame(CFA, -6)
          CFI (cfiCond69) CFA SP+32
          CFI Block cfiCond70 Using cfiCommon0
          CFI (cfiCond70) Function OLED_SetPosition
          CFI (cfiCond70) Conditional ??CrossCallReturnLabel_41
          CFI (cfiCond70) R10L Frame(CFA, -12)
          CFI (cfiCond70) R10H Frame(CFA, -10)
          CFI (cfiCond70) R11L Frame(CFA, -8)
          CFI (cfiCond70) R11H Frame(CFA, -6)
          CFI (cfiCond70) CFA SP+16
          CFI Block cfiCond71 Using cfiCommon0
          CFI (cfiCond71) Function OLED_Clear
          CFI (cfiCond71) Conditional ??CrossCallReturnLabel_40
          CFI (cfiCond71) R6L Frame(CFA, -28)
          CFI (cfiCond71) R6H Frame(CFA, -26)
          CFI (cfiCond71) R7L Frame(CFA, -24)
          CFI (cfiCond71) R7H Frame(CFA, -22)
          CFI (cfiCond71) R8L Frame(CFA, -20)
          CFI (cfiCond71) R8H Frame(CFA, -18)
          CFI (cfiCond71) R9L Frame(CFA, -16)
          CFI (cfiCond71) R9H Frame(CFA, -14)
          CFI (cfiCond71) R10L Frame(CFA, -12)
          CFI (cfiCond71) R10H Frame(CFA, -10)
          CFI (cfiCond71) R11L Frame(CFA, -8)
          CFI (cfiCond71) R11H Frame(CFA, -6)
          CFI (cfiCond71) CFA SP+32
          CFI Block cfiPicker72 Using cfiCommon1
          CFI (cfiPicker72) NoFunction
          CFI (cfiPicker72) Picker
        MOV.B   #0x0, R12
          CFI (cfiCond66) TailCall OLED_SetPosition OLED_WriteByte
          CFI (cfiCond66) TailCall OLED_SetPosition OLED_WriteByte
          CFI (cfiCond68) TailCall OLED_Clear OLED_WriteByte
          CFI (cfiCond68) TailCall OLED_Clear OLED_WriteByte
          CFI (cfiCond66) TailCall OLED_SetPosition OLED_WriteByte
          CFI (cfiCond68) TailCall OLED_Clear OLED_WriteByte
        BRA     #OLED_WriteByte
          CFI EndBlock cfiCond66
          CFI EndBlock cfiCond67
          CFI EndBlock cfiCond68
          CFI EndBlock cfiCond69
          CFI EndBlock cfiCond70
          CFI EndBlock cfiCond71
          CFI EndBlock cfiPicker72

        RSEG `CODE`:CODE:REORDER:NOROOT(1)
?Subroutine7:
          CFI Block cfiCond73 Using cfiCommon0
          CFI Function OLED_SetPosition
          CFI Conditional ??CrossCallReturnLabel_41
          CFI R10L Frame(CFA, -12)
          CFI R10H Frame(CFA, -10)
          CFI R11L Frame(CFA, -8)
          CFI R11H Frame(CFA, -6)
          CFI CFA SP+16
          CFI Block cfiCond74 Using cfiCommon0
          CFI (cfiCond74) Function OLED_Clear
          CFI (cfiCond74) Conditional ??CrossCallReturnLabel_40
          CFI (cfiCond74) R6L Frame(CFA, -28)
          CFI (cfiCond74) R6H Frame(CFA, -26)
          CFI (cfiCond74) R7L Frame(CFA, -24)
          CFI (cfiCond74) R7H Frame(CFA, -22)
          CFI (cfiCond74) R8L Frame(CFA, -20)
          CFI (cfiCond74) R8H Frame(CFA, -18)
          CFI (cfiCond74) R9L Frame(CFA, -16)
          CFI (cfiCond74) R9H Frame(CFA, -14)
          CFI (cfiCond74) R10L Frame(CFA, -12)
          CFI (cfiCond74) R10H Frame(CFA, -10)
          CFI (cfiCond74) R11L Frame(CFA, -8)
          CFI (cfiCond74) R11H Frame(CFA, -6)
          CFI (cfiCond74) CFA SP+32
          CFI Block cfiPicker75 Using cfiCommon1
          CFI (cfiPicker75) NoFunction
          CFI (cfiPicker75) Picker
        ADD.B   #0xb0, R13
        JMP     ?Subroutine25
        NOP
          CFI EndBlock cfiCond73
          CFI EndBlock cfiCond74
          CFI EndBlock cfiPicker75

        RSEG `CODE`:CODE:REORDER:NOROOT(1)
OLED_DrawPoint:
          CFI Block cfiBlock76 Using cfiCommon0
          CFI Function OLED_DrawPoint
        PUSHM.A #0x4, R11
          CFI R8L Frame(CFA, -20)
          CFI R8H Frame(CFA, -18)
          CFI R9L Frame(CFA, -16)
          CFI R9H Frame(CFA, -14)
          CFI R10L Frame(CFA, -12)
          CFI R10H Frame(CFA, -10)
          CFI R11L Frame(CFA, -8)
          CFI R11H Frame(CFA, -6)
          CFI CFA SP+20
        MOV.B   R12, R15
        MOV.B   R13, R10
        MOV.B   R14, R11
        MOV.B   R13, R14
        RRUM.W  #0x3, R14
        MOV.W   R14, R12
        CALLA   #??Subroutine23_1
??CrossCallReturnLabel_58:
        PUSHM.W #0x2, R13
          CFI CFA SP+24
        POPM.A  #0x1, R13
          CFI CFA SP+20
        ADDA    R15, R13
        MOVX.B  OLED_RAM_DATA(R13), R8
        CMP.B   #0x0, R11
        MOV.W   #0x1, R11
        MOV.B   R10, R13
        JEQ     ??OLED_DrawPoint_3
        CALLA   #?Subroutine10
??CrossCallReturnLabel_17:
        BIS.B   R11, R8
        JMP     ??OLED_DrawPoint_2
??OLED_DrawPoint_3:
        CALLA   #?Subroutine10
??CrossCallReturnLabel_18:
        BIC.B   R11, R8
??OLED_DrawPoint_2:
        MOV.B   R15, R13
        MOV.B   R14, R12
          CFI FunCall OLED_SetPosition
        CALLA   #OLED_SetPosition
        MOV.B   R8, R13
        MOV.B   #0x1, R12
          CFI FunCall OLED_WriteByte
        CALLA   #OLED_WriteByte
        POPM.A  #0x4, R11
          CFI R10H SameValue
          CFI R11H SameValue
          CFI R8H SameValue
          CFI R9H SameValue
          CFI R10L SameValue
          CFI R11L SameValue
          CFI R8L SameValue
          CFI R9L SameValue
          CFI CFA SP+4
        RETA
          CFI EndBlock cfiBlock76

        RSEG `CODE`:CODE:REORDER:NOROOT(1)
?Subroutine10:
          CFI Block cfiCond77 Using cfiCommon0
          CFI Function OLED_DrawPoint
          CFI Conditional ??CrossCallReturnLabel_17
          CFI R8L Frame(CFA, -20)
          CFI R8H Frame(CFA, -18)
          CFI R9L Frame(CFA, -16)
          CFI R9H Frame(CFA, -14)
          CFI R10L Frame(CFA, -12)
          CFI R10H Frame(CFA, -10)
          CFI R11L Frame(CFA, -8)
          CFI R11H Frame(CFA, -6)
          CFI CFA SP+24
          CFI Block cfiCond78 Using cfiCommon0
          CFI (cfiCond78) Function OLED_DrawPoint
          CFI (cfiCond78) Conditional ??CrossCallReturnLabel_18
          CFI (cfiCond78) R8L Frame(CFA, -20)
          CFI (cfiCond78) R8H Frame(CFA, -18)
          CFI (cfiCond78) R9L Frame(CFA, -16)
          CFI (cfiCond78) R9H Frame(CFA, -14)
          CFI (cfiCond78) R10L Frame(CFA, -12)
          CFI (cfiCond78) R10H Frame(CFA, -10)
          CFI (cfiCond78) R11L Frame(CFA, -8)
          CFI (cfiCond78) R11H Frame(CFA, -6)
          CFI (cfiCond78) CFA SP+24
          CFI Block cfiPicker79 Using cfiCommon1
          CFI (cfiPicker79) NoFunction
          CFI (cfiPicker79) Picker
        AND.B   #0xf8, R10
        SUB.B   R10, R13
        SUB.B   #0x1, R13
        JN      ??OLED_DrawPoint_0
        RPT     R13
        RLAX.W  R11
??OLED_DrawPoint_0:
        RETA
          CFI EndBlock cfiCond77
          CFI EndBlock cfiCond78
          CFI EndBlock cfiPicker79

        RSEG `CODE`:CODE:REORDER:NOROOT(1)
OLED_FillRect:
          CFI Block cfiBlock80 Using cfiCommon0
          CFI Function OLED_FillRect
        PUSHM.A #0x6, R11
          CFI R6L Frame(CFA, -28)
          CFI R6H Frame(CFA, -26)
          CFI R7L Frame(CFA, -24)
          CFI R7H Frame(CFA, -22)
          CFI R8L Frame(CFA, -20)
          CFI R8H Frame(CFA, -18)
          CFI R9L Frame(CFA, -16)
          CFI R9H Frame(CFA, -14)
          CFI R10L Frame(CFA, -12)
          CFI R10H Frame(CFA, -10)
          CFI R11L Frame(CFA, -8)
          CFI R11H Frame(CFA, -6)
          CFI CFA SP+28
        MOV.B   R12, R7
        MOV.B   R14, R8
        MOV.B   R15, R10
        MOV.B   R13, R11
        CMP.B   R13, R15
        JNC     ??OLED_FillRect_2
        MOV.B   0x1c(SP), R9
??OLED_FillRect_1:
        MOV.B   R7, R6
        CMP.B   R7, R8
        JNC     ??OLED_FillRect_3
??OLED_FillRect_0:
        MOV.B   R9, R14
        MOV.B   R11, R13
        MOV.B   R6, R12
          CFI FunCall OLED_DrawPoint
        CALLA   #OLED_DrawPoint
        ADD.B   #0x1, R6
        CMP.B   R6, R8
        JC      ??OLED_FillRect_0
??OLED_FillRect_3:
        ADD.B   #0x1, R11
        CMP.B   R11, R10
        JC      ??OLED_FillRect_1
??OLED_FillRect_2:
        POPM.A  #0x6, R11
          CFI R10H SameValue
          CFI R11H SameValue
          CFI R6H SameValue
          CFI R7H SameValue
          CFI R8H SameValue
          CFI R9H SameValue
          CFI R10L SameValue
          CFI R11L SameValue
          CFI R6L SameValue
          CFI R7L SameValue
          CFI R8L SameValue
          CFI R9L SameValue
          CFI CFA SP+4
        RETA
          CFI EndBlock cfiBlock80

        RSEG `CODE`:CODE:REORDER:NOROOT(1)
OLED_FillPart:
          CFI Block cfiBlock81 Using cfiCommon0
          CFI Function OLED_FillPart
        PUSHM.A #0x8, R11
          CFI R4L Frame(CFA, -36)
          CFI R4H Frame(CFA, -34)
          CFI R5L Frame(CFA, -32)
          CFI R5H Frame(CFA, -30)
          CFI R6L Frame(CFA, -28)
          CFI R6H Frame(CFA, -26)
          CFI R7L Frame(CFA, -24)
          CFI R7H Frame(CFA, -22)
          CFI R8L Frame(CFA, -20)
          CFI R8H Frame(CFA, -18)
          CFI R9L Frame(CFA, -16)
          CFI R9H Frame(CFA, -14)
          CFI R10L Frame(CFA, -12)
          CFI R10H Frame(CFA, -10)
          CFI R11L Frame(CFA, -8)
          CFI R11H Frame(CFA, -6)
          CFI CFA SP+36
        MOV.B   R12, R6
        MOV.B   R14, R7
        MOV.B   R15, R4
        MOV.B   0x24(SP), R11
        CMP.B   #0x0, R11
        JEQ     ??OLED_FillPart_3
        MOV.B   #0xff, R11
??OLED_FillPart_3:
        MOV.B   R13, R10
        CMP.B   R10, R15
        JNC     ??OLED_FillPart_4
??OLED_FillPart_1:
        MOV.B   R6, R13
        MOV.B   R10, R12
          CFI FunCall OLED_SetPosition
        CALLA   #OLED_SetPosition
        CMP.B   R7, R6
        JC      ??OLED_FillPart_5
        MOV.W   R10, R12
        CALLA   #??Subroutine23_1
??CrossCallReturnLabel_59:
        PUSHM.W #0x2, R13
          CFI CFA SP+40
        POPM.A  #0x1, R8
          CFI CFA SP+36
        ADDA    R6, R8
        ADDA    #OLED_RAM_DATA, R8
        MOV.B   R7, R9
        SUB.B   R6, R9
??OLED_FillPart_0:
        MOV.B   #0x0, 0(R8)
        CALLA   #?Subroutine0
??CrossCallReturnLabel_3:
        PUSHM.W #0x2, R13
          CFI CFA SP+40
        POPM.A  #0x1, R14
          CFI CFA SP+36
        ADDA    R15, R14
        MOVX.B  R11, OLED_RAM_DATA(R14)
        CALLA   #?Subroutine6
??CrossCallReturnLabel_10:
        MOV.B   R11, R13
        CALLA   #??Subroutine1_1
??CrossCallReturnLabel_48:
        ADDA    #0x1, R8
        ADD.B   #0xff, R9
        JNE     ??OLED_FillPart_0
??OLED_FillPart_5:
        ADD.B   #0x1, R10
        CMP.B   R10, R4
        JC      ??OLED_FillPart_1
??OLED_FillPart_4:
        POPM.A  #0x8, R11
          CFI R10H SameValue
          CFI R11H SameValue
          CFI R4H SameValue
          CFI R5H SameValue
          CFI R6H SameValue
          CFI R7H SameValue
          CFI R8H SameValue
          CFI R9H SameValue
          CFI R10L SameValue
          CFI R11L SameValue
          CFI R4L SameValue
          CFI R5L SameValue
          CFI R6L SameValue
          CFI R7L SameValue
          CFI R8L SameValue
          CFI R9L SameValue
          CFI CFA SP+4
        RETA
          CFI EndBlock cfiBlock81
        REQUIRE _A_PDOUT_L

        RSEG `CODE`:CODE:REORDER:NOROOT(1)
OLED_Clear:
          CFI Block cfiBlock82 Using cfiCommon0
          CFI Function OLED_Clear
          CFI NoCalls
        PUSHM.A #0x6, R11
          CFI R6L Frame(CFA, -28)
          CFI R6H Frame(CFA, -26)
          CFI R7L Frame(CFA, -24)
          CFI R7H Frame(CFA, -22)
          CFI R8L Frame(CFA, -20)
          CFI R8H Frame(CFA, -18)
          CFI R9L Frame(CFA, -16)
          CFI R9H Frame(CFA, -14)
          CFI R10L Frame(CFA, -12)
          CFI R10H Frame(CFA, -10)
          CFI R11L Frame(CFA, -8)
          CFI R11H Frame(CFA, -6)
          CFI CFA SP+28
        MOV.W   #0x0, R10
        MOVA    #OLED_RAM_DATA, R9
        MOVA    #row_position, R11
        MOVA    #line_position, R8
??OLED_Clear_1:
        MOV.B   R10, R13
        CALLA   #?Subroutine7
??CrossCallReturnLabel_40:
        MOV.B   #0x0, R13
        CALLA   #?Subroutine25
??CrossCallReturnLabel_43:
        MOV.B   #0x10, R13
        CALLA   #?Subroutine25
??CrossCallReturnLabel_42:
        MOV.B   R10, 0(R8)
        MOV.B   #0x0, 0(R11)
        MOVA    R9, R6
        ADDA    #0x80, R6
??OLED_Clear_0:
        MOV.B   #0x0, 0(R9)
        BIS.B   #0x4, &0x263
        MOV.B   @R8, R12
        CALLA   #??Subroutine23_1
??CrossCallReturnLabel_60:
        PUSHM.W #0x2, R13
          CFI CFA SP+32
        POPM.A  #0x1, R14
          CFI CFA SP+28
        MOV.B   @R11, R15
        CALLA   #?Subroutine14
??CrossCallReturnLabel_23:
        MOV.B   @R11, R14
        ADD.B   #0x1, R14
        CMP.B   #0x80, R14
        JNC     ??OLED_Clear_2
        MOV.B   #0x0, R14
        ADD.B   #0x1, 0(R8)
??OLED_Clear_2:
        MOV.B   R14, 0(R11)
        CALLA   #??Subroutine1_0
??CrossCallReturnLabel_50:
        ADDA    #0x1, R9
        CMPA    R6, R9
        JNE     ??OLED_Clear_0
        ADD.W   #0x1, R10
        CMP.W   #0x8, R10
        JL      ??OLED_Clear_1
        POPM.A  #0x6, R11
          CFI R10H SameValue
          CFI R11H SameValue
          CFI R6H SameValue
          CFI R7H SameValue
          CFI R8H SameValue
          CFI R9H SameValue
          CFI R10L SameValue
          CFI R11L SameValue
          CFI R6L SameValue
          CFI R7L SameValue
          CFI R8L SameValue
          CFI R9L SameValue
          CFI CFA SP+4
        RETA
          CFI EndBlock cfiBlock82
        REQUIRE _A_PDOUT_L

        RSEG `CODE`:CODE:REORDER:NOROOT(1)
OLED_Init:
          CFI Block cfiBlock83 Using cfiCommon0
          CFI Function OLED_Init
        PUSHM.A #0x1, R10
          CFI R10L Frame(CFA, -8)
          CFI R10H Frame(CFA, -6)
          CFI CFA SP+8
        PUSH.B  #0x3
          CFI CFA SP+10
        PUSH.B  #0x0
          CFI CFA SP+12
        CALLA   #?Subroutine4
??CrossCallReturnLabel_6:
        CALLA   #?Subroutine2
??CrossCallReturnLabel_4:
        BIC.B   #0x80, &0x222
        BIS.B   #0x80, &0x222
        MOVA    #OLED_WriteByte, R10
        MOV.B   #0xa8, R13
        MOV.B   #0x0, R12
          CFI FunCall OLED_WriteByte
        CALLA   R10
        MOV.B   #0x3f, R13
        MOV.B   #0x0, R12
          CFI FunCall OLED_WriteByte
        CALLA   R10
        MOV.B   #0xd3, R13
        MOV.B   #0x0, R12
          CFI FunCall OLED_WriteByte
        CALLA   R10
        MOV.B   #0x0, R13
        MOV.B   #0x0, R12
          CFI FunCall OLED_WriteByte
        CALLA   R10
        MOV.B   #0x40, R13
        MOV.B   #0x0, R12
          CFI FunCall OLED_WriteByte
        CALLA   R10
        MOV.B   #0xa1, R13
        MOV.B   #0x0, R12
          CFI FunCall OLED_WriteByte
        CALLA   R10
        MOV.B   #0xc8, R13
        MOV.B   #0x0, R12
          CFI FunCall OLED_WriteByte
        CALLA   R10
        MOV.B   #0xda, R13
        MOV.B   #0x0, R12
          CFI FunCall OLED_WriteByte
        CALLA   R10
        MOV.B   #0x12, R13
        MOV.B   #0x0, R12
          CFI FunCall OLED_WriteByte
        CALLA   R10
        MOV.B   #0x81, R13
        MOV.B   #0x0, R12
          CFI FunCall OLED_WriteByte
        CALLA   R10
        MOV.B   #0x7f, R13
        MOV.B   #0x0, R12
          CFI FunCall OLED_WriteByte
        CALLA   R10
        MOV.B   #0xa4, R13
        MOV.B   #0x0, R12
          CFI FunCall OLED_WriteByte
        CALLA   R10
        MOV.B   #0xa6, R13
        MOV.B   #0x0, R12
          CFI FunCall OLED_WriteByte
        CALLA   R10
        MOV.B   #0xd5, R13
        MOV.B   #0x0, R12
          CFI FunCall OLED_WriteByte
        CALLA   R10
        MOV.B   #0x80, R13
        MOV.B   #0x0, R12
          CFI FunCall OLED_WriteByte
        CALLA   R10
        MOV.B   #0x8d, R13
        MOV.B   #0x0, R12
          CFI FunCall OLED_WriteByte
        CALLA   R10
        MOV.B   #0x14, R13
        MOV.B   #0x0, R12
          CFI FunCall OLED_WriteByte
        CALLA   R10
        MOV.B   #0xaf, R13
        MOV.B   #0x0, R12
          CFI FunCall OLED_WriteByte
        CALLA   R10
          CFI FunCall OLED_Clear
        CALLA   #OLED_Clear
        ADDA    #0x4, SP
          CFI CFA SP+8
        POPM.A  #0x1, R10
          CFI R10H SameValue
          CFI R10L SameValue
          CFI CFA SP+4
        RETA
          CFI EndBlock cfiBlock83
        REQUIRE _A_PBOUT_L

        RSEG `CODE`:CODE:REORDER:NOROOT(1)
OLED_DispChar:
          CFI Block cfiBlock84 Using cfiCommon0
          CFI Function OLED_DispChar
        PUSHM.A #0x8, R11
          CFI R4L Frame(CFA, -36)
          CFI R4H Frame(CFA, -34)
          CFI R5L Frame(CFA, -32)
          CFI R5H Frame(CFA, -30)
          CFI R6L Frame(CFA, -28)
          CFI R6H Frame(CFA, -26)
          CFI R7L Frame(CFA, -24)
          CFI R7H Frame(CFA, -22)
          CFI R8L Frame(CFA, -20)
          CFI R8H Frame(CFA, -18)
          CFI R9L Frame(CFA, -16)
          CFI R9H Frame(CFA, -14)
          CFI R10L Frame(CFA, -12)
          CFI R10H Frame(CFA, -10)
          CFI R11L Frame(CFA, -8)
          CFI R11H Frame(CFA, -6)
          CFI CFA SP+36
        MOV.B   R12, R10
        MOV.B   R13, R6
        MOV.B   R14, R7
        ADD.B   #0xe0, R15
        MOV.B   R15, R11
        CMP.B   #0x5f, R15
        JC      ??OLED_DispChar_2
        MOV.B   R14, R13
        MOV.B   R6, R12
          CFI FunCall OLED_SetPosition
        CALLA   #OLED_SetPosition
        ADDA    R10, R10
        MOVA    R10, R14
        ADDA    R10, R10
        ADDA    R14, R10
        MOVX.B  Font + 1(R10), R9
        MOVX.A  Font + 2(R10), R8
        MOV.W   #0x8, R14
        PUSH.W  SR
          CFI CFA SP+38
        CALLA   #?Subroutine15
??CrossCallReturnLabel_26:
        MOV.B   R9, &__iar_HWMUL + 8           // OP2
        MOV.W   &__iar_HWMUL + 10, R12         // RESLO
        NOP
        POP.W   SR
          CFI CFA SP+36
          CFI FunCall ?DivMod16s
        CALLA   #?DivMod16s
        PUSH.W  SR
          CFI CFA SP+38
        DINT
        NOP
        MOV.B   R11, &__iar_HWMUL              // MPY
        MOV.W   R12, &__iar_HWMUL + 8          // OP2
        MOV.W   &__iar_HWMUL + 10, R14         // RESLO
        NOP
        POP.W   SR
          CFI CFA SP+36
        RLAM.A  #0x4, R14
        RRAM.A  #0x4, R14
        MOVA    R8, R11
        ADDA    R14, R11
        MOV.B   #0x0, R8
        CMP.B   #0x0, R9
        JEQ     ??OLED_DispChar_2
        MOVX.B  Font + 1(R10), R4
??OLED_DispChar_1:
        MOV.B   R7, R13
        MOV.B   R8, R12
        RRUM.W  #0x3, R12
        ADD.B   R6, R12
          CFI FunCall OLED_SetPosition
        CALLA   #OLED_SetPosition
        MOVX.B  Font(R10), R9
        CMP.B   #0x0, R9
        JEQ     ??OLED_DispChar_5
??OLED_DispChar_0:
        MOV.B   @R11+, R14
        CALLA   #?Subroutine0
??CrossCallReturnLabel_2:
        PUSHM.W #0x2, R13
          CFI CFA SP+40
        POPM.A  #0x1, R13
          CFI CFA SP+36
        CALLA   #?Subroutine5
??CrossCallReturnLabel_8:
        CALLA   #??Subroutine1_1
??CrossCallReturnLabel_47:
        ADD.B   #0xff, R9
        JNE     ??OLED_DispChar_0
??OLED_DispChar_5:
        ADD.B   #0x8, R8
        CMP.B   R4, R8
        JNC     ??OLED_DispChar_1
??OLED_DispChar_2:
        POPM.A  #0x8, R11
          CFI R10H SameValue
          CFI R11H SameValue
          CFI R4H SameValue
          CFI R5H SameValue
          CFI R6H SameValue
          CFI R7H SameValue
          CFI R8H SameValue
          CFI R9H SameValue
          CFI R10L SameValue
          CFI R11L SameValue
          CFI R4L SameValue
          CFI R5L SameValue
          CFI R6L SameValue
          CFI R7L SameValue
          CFI R8L SameValue
          CFI R9L SameValue
          CFI CFA SP+4
        RETA
          CFI EndBlock cfiBlock84
        REQUIRE _A_PDOUT_L

        RSEG `CODE`:CODE:REORDER:NOROOT(1)
?Subroutine15:
          CFI Block cfiCond85 Using cfiCommon0
          CFI Function OLED_DispChar
          CFI Conditional ??CrossCallReturnLabel_26
          CFI R4L Frame(CFA, -36)
          CFI R4H Frame(CFA, -34)
          CFI R5L Frame(CFA, -32)
          CFI R5H Frame(CFA, -30)
          CFI R6L Frame(CFA, -28)
          CFI R6H Frame(CFA, -26)
          CFI R7L Frame(CFA, -24)
          CFI R7H Frame(CFA, -22)
          CFI R8L Frame(CFA, -20)
          CFI R8H Frame(CFA, -18)
          CFI R9L Frame(CFA, -16)
          CFI R9H Frame(CFA, -14)
          CFI R10L Frame(CFA, -12)
          CFI R10H Frame(CFA, -10)
          CFI R11L Frame(CFA, -8)
          CFI R11H Frame(CFA, -6)
          CFI CFA SP+42
          CFI Block cfiCond86 Using cfiCommon0
          CFI (cfiCond86) Function OLED_DispChineseAt
          CFI (cfiCond86) Conditional ??CrossCallReturnLabel_27
          CFI (cfiCond86) R4L Frame(CFA, -36)
          CFI (cfiCond86) R4H Frame(CFA, -34)
          CFI (cfiCond86) R5L Frame(CFA, -32)
          CFI (cfiCond86) R5H Frame(CFA, -30)
          CFI (cfiCond86) R6L Frame(CFA, -28)
          CFI (cfiCond86) R6H Frame(CFA, -26)
          CFI (cfiCond86) R7L Frame(CFA, -24)
          CFI (cfiCond86) R7H Frame(CFA, -22)
          CFI (cfiCond86) R8L Frame(CFA, -20)
          CFI (cfiCond86) R8H Frame(CFA, -18)
          CFI (cfiCond86) R9L Frame(CFA, -16)
          CFI (cfiCond86) R9H Frame(CFA, -14)
          CFI (cfiCond86) R10L Frame(CFA, -12)
          CFI (cfiCond86) R10H Frame(CFA, -10)
          CFI (cfiCond86) R11L Frame(CFA, -8)
          CFI (cfiCond86) R11H Frame(CFA, -6)
          CFI (cfiCond86) CFA SP+42
          CFI Block cfiPicker87 Using cfiCommon1
          CFI (cfiPicker87) NoFunction
          CFI (cfiPicker87) Picker
        DINT
        NOP
        MOVX.B  Font(R10), &__iar_HWMUL        // MPY
        RETA
          CFI EndBlock cfiCond85
          CFI EndBlock cfiCond86
          CFI EndBlock cfiPicker87

        RSEG `CODE`:CODE:REORDER:NOROOT(1)
OLED_DispStringLen:
          CFI Block cfiBlock88 Using cfiCommon0
          CFI Function OLED_DispStringLen
        PUSHM.A #0x6, R11
          CFI R6L Frame(CFA, -28)
          CFI R6H Frame(CFA, -26)
          CFI R7L Frame(CFA, -24)
          CFI R7H Frame(CFA, -22)
          CFI R8L Frame(CFA, -20)
          CFI R8H Frame(CFA, -18)
          CFI R9L Frame(CFA, -16)
          CFI R9H Frame(CFA, -14)
          CFI R10L Frame(CFA, -12)
          CFI R10H Frame(CFA, -10)
          CFI R11L Frame(CFA, -8)
          CFI R11H Frame(CFA, -6)
          CFI CFA SP+28
        MOV.B   R12, R6
        MOV.B   R13, R11
        MOV.B   R14, R10
        MOVA    R15, R7
        MOV.B   R12, R9
        ADDA    R9, R9
        MOVA    R9, R14
        ADDA    R9, R9
        ADDA    R14, R9
        MOV.B   0x1c(SP), R8
        JMP     ??OLED_DispStringLen_2
??OLED_DispStringLen_0:
        MOV.B   #0x20, R15
??OLED_DispStringLen_4:
        MOV.B   R10, R14
        MOV.B   R11, R13
        MOV.B   R6, R12
          CFI FunCall OLED_DispChar
        CALLA   #OLED_DispChar
        MOVX.B  Font(R9), R15
        ADD.B   R15, R10
        MOV.W   #0x80, R14
        SUB.W   R15, R14
        CMP.W   R10, R14
        JGE     ??OLED_DispStringLen_2
        MOV.B   #0x0, R10
        MOVX.B  Font + 1(R9), R14
        CALLA   #?Subroutine16
??OLED_DispStringLen_2:
        CMP.B   #0x0, R8
        JEQ     ??OLED_DispStringLen_5
        ADD.B   #0xff, R8
        MOV.B   @R7, R12
        CMP.B   #0x0, R12
        JEQ     ??OLED_DispStringLen_0
        MOV.B   @R7+, R15
        JMP     ??OLED_DispStringLen_4
??OLED_DispStringLen_5:
        POPM.A  #0x6, R11
          CFI R10H SameValue
          CFI R11H SameValue
          CFI R6H SameValue
          CFI R7H SameValue
          CFI R8H SameValue
          CFI R9H SameValue
          CFI R10L SameValue
          CFI R11L SameValue
          CFI R6L SameValue
          CFI R7L SameValue
          CFI R8L SameValue
          CFI R9L SameValue
          CFI CFA SP+4
        RETA
          CFI EndBlock cfiBlock88

        RSEG `CODE`:CODE:REORDER:NOROOT(1)
?Subroutine16:
          CFI Block cfiCond89 Using cfiCommon0
          CFI Function OLED_DispStringLen
          CFI Conditional ??OLED_DispStringLen_2
          CFI R6L Frame(CFA, -28)
          CFI R6H Frame(CFA, -26)
          CFI R7L Frame(CFA, -24)
          CFI R7H Frame(CFA, -22)
          CFI R8L Frame(CFA, -20)
          CFI R8H Frame(CFA, -18)
          CFI R9L Frame(CFA, -16)
          CFI R9H Frame(CFA, -14)
          CFI R10L Frame(CFA, -12)
          CFI R10H Frame(CFA, -10)
          CFI R11L Frame(CFA, -8)
          CFI R11H Frame(CFA, -6)
          CFI CFA SP+32
          CFI Block cfiCond90 Using cfiCommon0
          CFI (cfiCond90) Function OLED_DispStringAt
          CFI (cfiCond90) Conditional ??OLED_DispStringAt_1
          CFI (cfiCond90) R6L Frame(CFA, -28)
          CFI (cfiCond90) R6H Frame(CFA, -26)
          CFI (cfiCond90) R7L Frame(CFA, -24)
          CFI (cfiCond90) R7H Frame(CFA, -22)
          CFI (cfiCond90) R8L Frame(CFA, -20)
          CFI (cfiCond90) R8H Frame(CFA, -18)
          CFI (cfiCond90) R9L Frame(CFA, -16)
          CFI (cfiCond90) R9H Frame(CFA, -14)
          CFI (cfiCond90) R10L Frame(CFA, -12)
          CFI (cfiCond90) R10H Frame(CFA, -10)
          CFI (cfiCond90) R11L Frame(CFA, -8)
          CFI (cfiCond90) R11H Frame(CFA, -6)
          CFI (cfiCond90) CFA SP+32
          CFI Block cfiPicker91 Using cfiCommon1
          CFI (cfiPicker91) NoFunction
          CFI (cfiPicker91) Picker
        MOV.B   R14, R15
        RRUM.W  #0x3, R15
        ADD.B   R15, R11
        MOV.W   #0x40, R12
          CFI (cfiCond89) FunCall OLED_DispStringLen ?DivMod16s
          CFI (cfiCond90) FunCall OLED_DispStringAt ?DivMod16s
        CALLA   #?DivMod16s
        ADD.W   #0xffff, R12
        CMP.W   R11, R12
        JGE     ??OLED_DispStringLen_3
        MOV.B   #0x0, R11
??OLED_DispStringLen_3:
        RETA
          CFI EndBlock cfiCond89
          CFI EndBlock cfiCond90
          CFI EndBlock cfiPicker91

        RSEG `CODE`:CODE:REORDER:NOROOT(1)
OLED_DispStringAt:
          CFI Block cfiBlock92 Using cfiCommon0
          CFI Function OLED_DispStringAt
          CFI NoCalls
        PUSHM.A #0x6, R11
          CFI R6L Frame(CFA, -28)
          CFI R6H Frame(CFA, -26)
          CFI R7L Frame(CFA, -24)
          CFI R7H Frame(CFA, -22)
          CFI R8L Frame(CFA, -20)
          CFI R8H Frame(CFA, -18)
          CFI R9L Frame(CFA, -16)
          CFI R9H Frame(CFA, -14)
          CFI R10L Frame(CFA, -12)
          CFI R10H Frame(CFA, -10)
          CFI R11L Frame(CFA, -8)
          CFI R11H Frame(CFA, -6)
          CFI CFA SP+28
        MOV.B   R12, R6
        MOV.B   R13, R11
        MOV.B   R14, R10
        CALLA   #?Subroutine18
??CrossCallReturnLabel_28:
        JMP     ??OLED_DispStringAt_1
??OLED_DispStringAt_0:
        MOV.B   @R9+, R15
        MOV.B   R10, R14
        MOV.B   R11, R13
        CALLA   #?Subroutine12
??CrossCallReturnLabel_19:
        ADD.B   R15, R10
        MOV.W   #0x80, R14
        SUB.W   R15, R14
        CMP.W   R10, R14
        JGE     ??OLED_DispStringAt_1
        MOV.B   #0x0, R10
        MOVX.B  Font + 1(R8), R14
        CALLA   #?Subroutine16
??OLED_DispStringAt_1:
        MOV.B   @R9, R7
        CMP.B   #0x0, R7
        JNE     ??OLED_DispStringAt_0
        POPM.A  #0x6, R11
          CFI R10H SameValue
          CFI R11H SameValue
          CFI R6H SameValue
          CFI R7H SameValue
          CFI R8H SameValue
          CFI R9H SameValue
          CFI R10L SameValue
          CFI R11L SameValue
          CFI R6L SameValue
          CFI R7L SameValue
          CFI R8L SameValue
          CFI R9L SameValue
          CFI CFA SP+4
        RETA
          CFI EndBlock cfiBlock92

        RSEG `CODE`:CODE:REORDER:NOROOT(1)
?Subroutine18:
          CFI Block cfiCond93 Using cfiCommon0
          CFI Function OLED_DispStringAt
          CFI Conditional ??CrossCallReturnLabel_28
          CFI R6L Frame(CFA, -28)
          CFI R6H Frame(CFA, -26)
          CFI R7L Frame(CFA, -24)
          CFI R7H Frame(CFA, -22)
          CFI R8L Frame(CFA, -20)
          CFI R8H Frame(CFA, -18)
          CFI R9L Frame(CFA, -16)
          CFI R9H Frame(CFA, -14)
          CFI R10L Frame(CFA, -12)
          CFI R10H Frame(CFA, -10)
          CFI R11L Frame(CFA, -8)
          CFI R11H Frame(CFA, -6)
          CFI CFA SP+32
          CFI Block cfiCond94 Using cfiCommon0
          CFI (cfiCond94) Function OLED_DispStringAtCEOL
          CFI (cfiCond94) Conditional ??CrossCallReturnLabel_29
          CFI (cfiCond94) R6L Frame(CFA, -28)
          CFI (cfiCond94) R6H Frame(CFA, -26)
          CFI (cfiCond94) R7L Frame(CFA, -24)
          CFI (cfiCond94) R7H Frame(CFA, -22)
          CFI (cfiCond94) R8L Frame(CFA, -20)
          CFI (cfiCond94) R8H Frame(CFA, -18)
          CFI (cfiCond94) R9L Frame(CFA, -16)
          CFI (cfiCond94) R9H Frame(CFA, -14)
          CFI (cfiCond94) R10L Frame(CFA, -12)
          CFI (cfiCond94) R10H Frame(CFA, -10)
          CFI (cfiCond94) R11L Frame(CFA, -8)
          CFI (cfiCond94) R11H Frame(CFA, -6)
          CFI (cfiCond94) CFA SP+32
          CFI Block cfiPicker95 Using cfiCommon1
          CFI (cfiPicker95) NoFunction
          CFI (cfiPicker95) Picker
        MOVA    R15, R9
        MOV.B   R12, R8
        ADDA    R8, R8
        MOVA    R8, R14
        ADDA    R8, R8
        ADDA    R14, R8
        RETA
          CFI EndBlock cfiCond93
          CFI EndBlock cfiCond94
          CFI EndBlock cfiPicker95

        RSEG `CODE`:CODE:REORDER:NOROOT(1)
?Subroutine12:
          CFI Block cfiCond96 Using cfiCommon0
          CFI Function OLED_DispStringAt
          CFI Conditional ??CrossCallReturnLabel_19
          CFI R6L Frame(CFA, -28)
          CFI R6H Frame(CFA, -26)
          CFI R7L Frame(CFA, -24)
          CFI R7H Frame(CFA, -22)
          CFI R8L Frame(CFA, -20)
          CFI R8H Frame(CFA, -18)
          CFI R9L Frame(CFA, -16)
          CFI R9H Frame(CFA, -14)
          CFI R10L Frame(CFA, -12)
          CFI R10H Frame(CFA, -10)
          CFI R11L Frame(CFA, -8)
          CFI R11H Frame(CFA, -6)
          CFI CFA SP+32
          CFI Block cfiCond97 Using cfiCommon0
          CFI (cfiCond97) Function OLED_DispStringAtCEOL
          CFI (cfiCond97) Conditional ??CrossCallReturnLabel_20
          CFI (cfiCond97) R6L Frame(CFA, -28)
          CFI (cfiCond97) R6H Frame(CFA, -26)
          CFI (cfiCond97) R7L Frame(CFA, -24)
          CFI (cfiCond97) R7H Frame(CFA, -22)
          CFI (cfiCond97) R8L Frame(CFA, -20)
          CFI (cfiCond97) R8H Frame(CFA, -18)
          CFI (cfiCond97) R9L Frame(CFA, -16)
          CFI (cfiCond97) R9H Frame(CFA, -14)
          CFI (cfiCond97) R10L Frame(CFA, -12)
          CFI (cfiCond97) R10H Frame(CFA, -10)
          CFI (cfiCond97) R11L Frame(CFA, -8)
          CFI (cfiCond97) R11H Frame(CFA, -6)
          CFI (cfiCond97) CFA SP+32
          CFI Block cfiPicker98 Using cfiCommon1
          CFI (cfiPicker98) NoFunction
          CFI (cfiPicker98) Picker
        MOV.B   R6, R12
          CFI (cfiCond96) FunCall OLED_DispStringAt OLED_DispChar
          CFI (cfiCond97) FunCall OLED_DispStringAtCEOL OLED_DispChar
        CALLA   #OLED_DispChar
        MOVX.B  Font(R8), R15
        RETA
          CFI EndBlock cfiCond96
          CFI EndBlock cfiCond97
          CFI EndBlock cfiPicker98

        RSEG `CODE`:CODE:REORDER:NOROOT(1)
OLED_DispStringAtCEOL:
          CFI Block cfiBlock99 Using cfiCommon0
          CFI Function OLED_DispStringAtCEOL
        PUSHM.A #0x6, R11
          CFI R6L Frame(CFA, -28)
          CFI R6H Frame(CFA, -26)
          CFI R7L Frame(CFA, -24)
          CFI R7H Frame(CFA, -22)
          CFI R8L Frame(CFA, -20)
          CFI R8H Frame(CFA, -18)
          CFI R9L Frame(CFA, -16)
          CFI R9H Frame(CFA, -14)
          CFI R10L Frame(CFA, -12)
          CFI R10H Frame(CFA, -10)
          CFI R11L Frame(CFA, -8)
          CFI R11H Frame(CFA, -6)
          CFI CFA SP+28
        MOV.B   R12, R6
        MOV.B   R13, R10
        MOV.B   R14, R11
        CALLA   #?Subroutine18
??CrossCallReturnLabel_29:
        JMP     ??OLED_DispStringAtCEOL_1
??OLED_DispStringAtCEOL_0:
        MOV.B   @R9+, R15
        MOV.B   R11, R14
        MOV.B   R10, R13
        CALLA   #?Subroutine12
??CrossCallReturnLabel_20:
        ADD.B   R15, R11
        MOV.W   #0x80, R14
        SUB.W   R15, R14
        CMP.W   R11, R14
        JGE     ??OLED_DispStringAtCEOL_1
        MOV.B   #0x0, R11
        MOVX.B  Font + 1(R8), R14
        MOV.B   R14, R15
        RRUM.W  #0x3, R15
        ADD.B   R15, R10
        CALLA   #?Subroutine17
??CrossCallReturnLabel_55:
        CMP.W   R10, R12
        JGE     ??OLED_DispStringAtCEOL_1
        MOV.B   #0x0, R10
??OLED_DispStringAtCEOL_1:
        MOV.B   @R9, R7
        CMP.B   #0x0, R7
        JNE     ??OLED_DispStringAtCEOL_0
        PUSH.B  #0x0
          CFI CFA SP+30
        MOV.B   R10, R15
        MOV.B   #0x7f, R14
        MOV.B   R10, R13
        MOV.B   R11, R12
          CFI FunCall OLED_FillPart
        CALLA   #OLED_FillPart
        ADDA    #0x2, SP
          CFI CFA SP+28
        POPM.A  #0x6, R11
          CFI R10H SameValue
          CFI R11H SameValue
          CFI R6H SameValue
          CFI R7H SameValue
          CFI R8H SameValue
          CFI R9H SameValue
          CFI R10L SameValue
          CFI R11L SameValue
          CFI R6L SameValue
          CFI R7L SameValue
          CFI R8L SameValue
          CFI R9L SameValue
          CFI CFA SP+4
        RETA
          CFI EndBlock cfiBlock99

        RSEG `CODE`:CODE:NOROOT(1)
?Subroutine17:
          CFI Block cfiCond100 Using cfiCommon0
          CFI Function OLED_DispStringAtCEOL
          CFI Conditional ??CrossCallReturnLabel_55
          CFI R6L Frame(CFA, -28)
          CFI R6H Frame(CFA, -26)
          CFI R7L Frame(CFA, -24)
          CFI R7H Frame(CFA, -22)
          CFI R8L Frame(CFA, -20)
          CFI R8H Frame(CFA, -18)
          CFI R9L Frame(CFA, -16)
          CFI R9H Frame(CFA, -14)
          CFI R10L Frame(CFA, -12)
          CFI R10H Frame(CFA, -10)
          CFI R11L Frame(CFA, -8)
          CFI R11H Frame(CFA, -6)
          CFI CFA SP+32
          CFI Block cfiCond101 Using cfiCommon0
          CFI (cfiCond101) Function OLED_DispChineseAt
          CFI (cfiCond101) Conditional ??CrossCallReturnLabel_56
          CFI (cfiCond101) R4L Frame(CFA, -36)
          CFI (cfiCond101) R4H Frame(CFA, -34)
          CFI (cfiCond101) R5L Frame(CFA, -32)
          CFI (cfiCond101) R5H Frame(CFA, -30)
          CFI (cfiCond101) R6L Frame(CFA, -28)
          CFI (cfiCond101) R6H Frame(CFA, -26)
          CFI (cfiCond101) R7L Frame(CFA, -24)
          CFI (cfiCond101) R7H Frame(CFA, -22)
          CFI (cfiCond101) R8L Frame(CFA, -20)
          CFI (cfiCond101) R8H Frame(CFA, -18)
          CFI (cfiCond101) R9L Frame(CFA, -16)
          CFI (cfiCond101) R9H Frame(CFA, -14)
          CFI (cfiCond101) R10L Frame(CFA, -12)
          CFI (cfiCond101) R10H Frame(CFA, -10)
          CFI (cfiCond101) R11L Frame(CFA, -8)
          CFI (cfiCond101) R11H Frame(CFA, -6)
          CFI (cfiCond101) CFA SP+40
          CFI Block cfiCond102 Using cfiCommon0
          CFI (cfiCond102) Function OLED_Printf
          CFI (cfiCond102) Conditional ??CrossCallReturnLabel_57
          CFI (cfiCond102) R4L Frame(CFA, -36)
          CFI (cfiCond102) R4H Frame(CFA, -34)
          CFI (cfiCond102) R5L Frame(CFA, -32)
          CFI (cfiCond102) R5H Frame(CFA, -30)
          CFI (cfiCond102) R6L Frame(CFA, -28)
          CFI (cfiCond102) R6H Frame(CFA, -26)
          CFI (cfiCond102) R7L Frame(CFA, -24)
          CFI (cfiCond102) R7H Frame(CFA, -22)
          CFI (cfiCond102) R8L Frame(CFA, -20)
          CFI (cfiCond102) R8H Frame(CFA, -18)
          CFI (cfiCond102) R9L Frame(CFA, -16)
          CFI (cfiCond102) R9H Frame(CFA, -14)
          CFI (cfiCond102) R10L Frame(CFA, -12)
          CFI (cfiCond102) R10H Frame(CFA, -10)
          CFI (cfiCond102) R11L Frame(CFA, -8)
          CFI (cfiCond102) R11H Frame(CFA, -6)
          CFI (cfiCond102) CFA SP+182
          CFI Block cfiPicker103 Using cfiCommon1
          CFI (cfiPicker103) NoFunction
          CFI (cfiPicker103) Picker
        MOV.W   #0x40, R12
          CFI EndBlock cfiCond100
          CFI EndBlock cfiCond101
          CFI EndBlock cfiCond102
          CFI EndBlock cfiPicker103
        REQUIRE ??Subroutine17_0
        // Fall through to label ??Subroutine17_0

        RSEG `CODE`:CODE:REORDER:NOROOT(1)
??Subroutine17_0:
          CFI Block cfiCond104 Using cfiCommon0
          CFI Function OLED_PrintfAt
          CFI Conditional ??CrossCallReturnLabel_53
          CFI R4L Frame(CFA, -36)
          CFI R4H Frame(CFA, -34)
          CFI R5L Frame(CFA, -32)
          CFI R5H Frame(CFA, -30)
          CFI R6L Frame(CFA, -28)
          CFI R6H Frame(CFA, -26)
          CFI R7L Frame(CFA, -24)
          CFI R7H Frame(CFA, -22)
          CFI R8L Frame(CFA, -20)
          CFI R8H Frame(CFA, -18)
          CFI R9L Frame(CFA, -16)
          CFI R9H Frame(CFA, -14)
          CFI R10L Frame(CFA, -12)
          CFI R10H Frame(CFA, -10)
          CFI R11L Frame(CFA, -8)
          CFI R11H Frame(CFA, -6)
          CFI CFA SP+178
          CFI Block cfiCond105 Using cfiCommon0
          CFI (cfiCond105) Function OLED_Printf
          CFI (cfiCond105) Conditional ??CrossCallReturnLabel_54
          CFI (cfiCond105) R4L Frame(CFA, -36)
          CFI (cfiCond105) R4H Frame(CFA, -34)
          CFI (cfiCond105) R5L Frame(CFA, -32)
          CFI (cfiCond105) R5H Frame(CFA, -30)
          CFI (cfiCond105) R6L Frame(CFA, -28)
          CFI (cfiCond105) R6H Frame(CFA, -26)
          CFI (cfiCond105) R7L Frame(CFA, -24)
          CFI (cfiCond105) R7H Frame(CFA, -22)
          CFI (cfiCond105) R8L Frame(CFA, -20)
          CFI (cfiCond105) R8H Frame(CFA, -18)
          CFI (cfiCond105) R9L Frame(CFA, -16)
          CFI (cfiCond105) R9H Frame(CFA, -14)
          CFI (cfiCond105) R10L Frame(CFA, -12)
          CFI (cfiCond105) R10H Frame(CFA, -10)
          CFI (cfiCond105) R11L Frame(CFA, -8)
          CFI (cfiCond105) R11H Frame(CFA, -6)
          CFI (cfiCond105) CFA SP+180
          CFI Block cfiCond106 Using cfiCommon0
          CFI (cfiCond106) Function OLED_DispStringAtCEOL
          CFI (cfiCond106) Conditional ??CrossCallReturnLabel_55
          CFI (cfiCond106) R6L Frame(CFA, -28)
          CFI (cfiCond106) R6H Frame(CFA, -26)
          CFI (cfiCond106) R7L Frame(CFA, -24)
          CFI (cfiCond106) R7H Frame(CFA, -22)
          CFI (cfiCond106) R8L Frame(CFA, -20)
          CFI (cfiCond106) R8H Frame(CFA, -18)
          CFI (cfiCond106) R9L Frame(CFA, -16)
          CFI (cfiCond106) R9H Frame(CFA, -14)
          CFI (cfiCond106) R10L Frame(CFA, -12)
          CFI (cfiCond106) R10H Frame(CFA, -10)
          CFI (cfiCond106) R11L Frame(CFA, -8)
          CFI (cfiCond106) R11H Frame(CFA, -6)
          CFI (cfiCond106) CFA SP+32
          CFI Block cfiCond107 Using cfiCommon0
          CFI (cfiCond107) Function OLED_DispChineseAt
          CFI (cfiCond107) Conditional ??CrossCallReturnLabel_56
          CFI (cfiCond107) R4L Frame(CFA, -36)
          CFI (cfiCond107) R4H Frame(CFA, -34)
          CFI (cfiCond107) R5L Frame(CFA, -32)
          CFI (cfiCond107) R5H Frame(CFA, -30)
          CFI (cfiCond107) R6L Frame(CFA, -28)
          CFI (cfiCond107) R6H Frame(CFA, -26)
          CFI (cfiCond107) R7L Frame(CFA, -24)
          CFI (cfiCond107) R7H Frame(CFA, -22)
          CFI (cfiCond107) R8L Frame(CFA, -20)
          CFI (cfiCond107) R8H Frame(CFA, -18)
          CFI (cfiCond107) R9L Frame(CFA, -16)
          CFI (cfiCond107) R9H Frame(CFA, -14)
          CFI (cfiCond107) R10L Frame(CFA, -12)
          CFI (cfiCond107) R10H Frame(CFA, -10)
          CFI (cfiCond107) R11L Frame(CFA, -8)
          CFI (cfiCond107) R11H Frame(CFA, -6)
          CFI (cfiCond107) CFA SP+40
          CFI Block cfiCond108 Using cfiCommon0
          CFI (cfiCond108) Function OLED_Printf
          CFI (cfiCond108) Conditional ??CrossCallReturnLabel_57
          CFI (cfiCond108) R4L Frame(CFA, -36)
          CFI (cfiCond108) R4H Frame(CFA, -34)
          CFI (cfiCond108) R5L Frame(CFA, -32)
          CFI (cfiCond108) R5H Frame(CFA, -30)
          CFI (cfiCond108) R6L Frame(CFA, -28)
          CFI (cfiCond108) R6H Frame(CFA, -26)
          CFI (cfiCond108) R7L Frame(CFA, -24)
          CFI (cfiCond108) R7H Frame(CFA, -22)
          CFI (cfiCond108) R8L Frame(CFA, -20)
          CFI (cfiCond108) R8H Frame(CFA, -18)
          CFI (cfiCond108) R9L Frame(CFA, -16)
          CFI (cfiCond108) R9H Frame(CFA, -14)
          CFI (cfiCond108) R10L Frame(CFA, -12)
          CFI (cfiCond108) R10H Frame(CFA, -10)
          CFI (cfiCond108) R11L Frame(CFA, -8)
          CFI (cfiCond108) R11H Frame(CFA, -6)
          CFI (cfiCond108) CFA SP+182
          CFI Block cfiPicker109 Using cfiCommon1
          CFI (cfiPicker109) NoFunction
          CFI (cfiPicker109) Picker
          CFI (cfiCond104) FunCall OLED_PrintfAt ?DivMod16s
          CFI (cfiCond105) FunCall OLED_Printf ?DivMod16s
          CFI (cfiCond106) FunCall OLED_DispStringAtCEOL ?DivMod16s
          CFI (cfiCond107) FunCall OLED_DispChineseAt ?DivMod16s
          CFI (cfiCond105) FunCall OLED_Printf ?DivMod16s
        CALLA   #?DivMod16s
        ADD.W   #0xffff, R12
        RETA
          CFI EndBlock cfiCond104
          CFI EndBlock cfiCond105
          CFI EndBlock cfiCond106
          CFI EndBlock cfiCond107
          CFI EndBlock cfiCond108
          CFI EndBlock cfiPicker109

        RSEG `CODE`:CODE:REORDER:NOROOT(1)
OLED_DispDecAt:
          CFI Block cfiBlock110 Using cfiCommon0
          CFI Function OLED_DispDecAt
        PUSHM.A #0x8, R11
          CFI R4L Frame(CFA, -36)
          CFI R4H Frame(CFA, -34)
          CFI R5L Frame(CFA, -32)
          CFI R5H Frame(CFA, -30)
          CFI R6L Frame(CFA, -28)
          CFI R6H Frame(CFA, -26)
          CFI R7L Frame(CFA, -24)
          CFI R7H Frame(CFA, -22)
          CFI R8L Frame(CFA, -20)
          CFI R8H Frame(CFA, -18)
          CFI R9L Frame(CFA, -16)
          CFI R9H Frame(CFA, -14)
          CFI R10L Frame(CFA, -12)
          CFI R10H Frame(CFA, -10)
          CFI R11L Frame(CFA, -8)
          CFI R11H Frame(CFA, -6)
          CFI CFA SP+36
        PUSH.B  R12
          CFI CFA SP+38
        PUSH.B  R13
          CFI CFA SP+40
        PUSH.B  R14
          CFI CFA SP+42
        PUSH.B  R15
          CFI CFA SP+44
        SUBA    #0x24, SP
          CFI CFA SP+80
        MOV.B   #0x0, 0(SP)
        MOV.W   0x50(SP), R6
        MOV.W   0x52(SP), R7
        CMP.W   #0x0, R7
        JGE     ??OLED_DispDecAt_3
        XOR.W   #0xffff, R6
        XOR.W   #0xffff, R7
        ADD.W   #0x1, R6
        ADDC.W  #0x0, R7
        MOV.B   #0x1, 0(SP)
??OLED_DispDecAt_3:
        MOV.W   #0xa, R8
        MOV.W   #0x0, R9
        MOV.B   R15, R10
        ADD.B   #0xff, R10
        MOVA    SP, R11
        ADDA    #0x6, R11
        CMP.B   #0x0, R10
        JL      ??OLED_DispDecAt_4
??OLED_DispDecAt_0:
        MOV.W   R6, 0x2(SP)
        MOV.W   R7, 0x4(SP)
        CALLA   #?Subroutine20
??CrossCallReturnLabel_32:
          CFI FunCall ?DivMod32u
        CALLA   #?DivMod32u
        MOV.W   R14, R4
        MOV.W   R15, R13
        PUSH.W  SR
          CFI CFA SP+82
        DINT
        NOP
        MOV.W   R8, &__iar_HWMUL + 16          // MPY32L
        MOV.W   R9, &__iar_HWMUL + 18          // MPY32H
        MOV.W   #0xcccd, &__iar_HWMUL + 32     // OP2L
        MOV.W   #0xcccc, &__iar_HWMUL + 34     // OP2H
        MOV.W   &__iar_HWMUL + 36, R12         // RES0
        MOV.W   &__iar_HWMUL + 38, R5          // RES1
        MOV.W   &__iar_HWMUL + 40, R14         // RES2
        MOV.W   &__iar_HWMUL + 42, R15         // RES3
        NOP
        POP.W   SR
          CFI CFA SP+80
        RRUM.W  #0x1, R15
        RRC.W   R14
        RRAM.W  #0x1, R15
        RRC.W   R14
        RRAM.W  #0x1, R15
        RRC.W   R14
        MOV.W   R4, R12
          CFI FunCall ?DivMod32u
        CALLA   #?DivMod32u
        ADD.B   #0x30, R12
        MOV.B   R10, R15
        SXT     R15
        ADDA    R11, R15
        MOV.B   R12, 0(R15)
        CMP.W   R9, R7
        JNC     ??OLED_DispDecAt_4
        JNE     ??OLED_DispDecAt_5
        CMP.W   R8, R6
        JNC     ??OLED_DispDecAt_4
??OLED_DispDecAt_5:
        RLA.W   R8
        RLC.W   R9
        MOV.W   R8, R14
        MOV.W   R9, R15
        RLA.W   R8
        RLC.W   R9
        RLA.W   R8
        RLC.W   R9
        ADD.W   R14, R8
        ADDC.W  R15, R9
        ADD.B   #0xff, R10
        CMP.B   #0x0, R10
        JGE     ??OLED_DispDecAt_0
??OLED_DispDecAt_4:
        MOV.B   @SP, R4
        CMP.B   #0x0, R4
        JEQ     ??OLED_DispDecAt_2
        ADD.B   #0xff, R10
        MOV.B   R10, R15
        SXT     R15
        ADDA    R11, R15
        MOV.B   #0x2d, 0(R15)
        JMP     ??OLED_DispDecAt_2
??OLED_DispDecAt_1:
        ADD.B   #0xff, R10
        MOV.B   R10, R15
        SXT     R15
        ADDA    R11, R15
        MOV.B   #0x20, 0(R15)
??OLED_DispDecAt_2:
        CMP.B   #0x1, R10
        JGE     ??OLED_DispDecAt_1
        MOV.B   0x24(SP), R15
        ADDA    R11, R15
        MOV.B   #0x0, 0(R15)
        MOVA    R11, R15
        MOV.B   0x26(SP), R14
        MOV.B   0x28(SP), R13
        MOV.B   0x2a(SP), R12
          CFI FunCall OLED_DispStringAt
        CALLA   #OLED_DispStringAt
        ADDA    #0x2c, SP
          CFI CFA SP+36
        POPM.A  #0x8, R11
          CFI R10H SameValue
          CFI R11H SameValue
          CFI R4H SameValue
          CFI R5H SameValue
          CFI R6H SameValue
          CFI R7H SameValue
          CFI R8H SameValue
          CFI R9H SameValue
          CFI R10L SameValue
          CFI R11L SameValue
          CFI R4L SameValue
          CFI R5L SameValue
          CFI R6L SameValue
          CFI R7L SameValue
          CFI R8L SameValue
          CFI R9L SameValue
          CFI CFA SP+4
        RETA
          CFI EndBlock cfiBlock110

        RSEG `CODE`:CODE:REORDER:NOROOT(1)
?Subroutine20:
          CFI Block cfiCond111 Using cfiCommon0
          CFI Function OLED_DispDecAt
          CFI Conditional ??CrossCallReturnLabel_32
          CFI R4L Frame(CFA, -36)
          CFI R4H Frame(CFA, -34)
          CFI R5L Frame(CFA, -32)
          CFI R5H Frame(CFA, -30)
          CFI R6L Frame(CFA, -28)
          CFI R6H Frame(CFA, -26)
          CFI R7L Frame(CFA, -24)
          CFI R7H Frame(CFA, -22)
          CFI R8L Frame(CFA, -20)
          CFI R8H Frame(CFA, -18)
          CFI R9L Frame(CFA, -16)
          CFI R9H Frame(CFA, -14)
          CFI R10L Frame(CFA, -12)
          CFI R10H Frame(CFA, -10)
          CFI R11L Frame(CFA, -8)
          CFI R11H Frame(CFA, -6)
          CFI CFA SP+84
          CFI Block cfiCond112 Using cfiCommon0
          CFI (cfiCond112) Function OLED_DispFolatAt
          CFI (cfiCond112) Conditional ??CrossCallReturnLabel_33
          CFI (cfiCond112) R4L Frame(CFA, -36)
          CFI (cfiCond112) R4H Frame(CFA, -34)
          CFI (cfiCond112) R5L Frame(CFA, -32)
          CFI (cfiCond112) R5H Frame(CFA, -30)
          CFI (cfiCond112) R6L Frame(CFA, -28)
          CFI (cfiCond112) R6H Frame(CFA, -26)
          CFI (cfiCond112) R7L Frame(CFA, -24)
          CFI (cfiCond112) R7H Frame(CFA, -22)
          CFI (cfiCond112) R8L Frame(CFA, -20)
          CFI (cfiCond112) R8H Frame(CFA, -18)
          CFI (cfiCond112) R9L Frame(CFA, -16)
          CFI (cfiCond112) R9H Frame(CFA, -14)
          CFI (cfiCond112) R10L Frame(CFA, -12)
          CFI (cfiCond112) R10H Frame(CFA, -10)
          CFI (cfiCond112) R11L Frame(CFA, -8)
          CFI (cfiCond112) R11H Frame(CFA, -6)
          CFI (cfiCond112) CFA SP+90
          CFI Block cfiCond113 Using cfiCommon0
          CFI (cfiCond113) Function OLED_DispFolatAt
          CFI (cfiCond113) Conditional ??CrossCallReturnLabel_34
          CFI (cfiCond113) R4L Frame(CFA, -36)
          CFI (cfiCond113) R4H Frame(CFA, -34)
          CFI (cfiCond113) R5L Frame(CFA, -32)
          CFI (cfiCond113) R5H Frame(CFA, -30)
          CFI (cfiCond113) R6L Frame(CFA, -28)
          CFI (cfiCond113) R6H Frame(CFA, -26)
          CFI (cfiCond113) R7L Frame(CFA, -24)
          CFI (cfiCond113) R7H Frame(CFA, -22)
          CFI (cfiCond113) R8L Frame(CFA, -20)
          CFI (cfiCond113) R8H Frame(CFA, -18)
          CFI (cfiCond113) R9L Frame(CFA, -16)
          CFI (cfiCond113) R9H Frame(CFA, -14)
          CFI (cfiCond113) R10L Frame(CFA, -12)
          CFI (cfiCond113) R10H Frame(CFA, -10)
          CFI (cfiCond113) R11L Frame(CFA, -8)
          CFI (cfiCond113) R11H Frame(CFA, -6)
          CFI (cfiCond113) CFA SP+90
          CFI Block cfiPicker114 Using cfiCommon1
          CFI (cfiPicker114) NoFunction
          CFI (cfiPicker114) Picker
        MOV.W   R6, R12
        MOV.W   R7, R13
        MOV.W   R8, R14
        MOV.W   R9, R15
        RETA
          CFI EndBlock cfiCond111
          CFI EndBlock cfiCond112
          CFI EndBlock cfiCond113
          CFI EndBlock cfiPicker114

        RSEG `CODE`:CODE:REORDER:NOROOT(1)
OLED_DispFolatAt:
          CFI Block cfiBlock115 Using cfiCommon0
          CFI Function OLED_DispFolatAt
        PUSHM.A #0x8, R11
          CFI R4L Frame(CFA, -36)
          CFI R4H Frame(CFA, -34)
          CFI R5L Frame(CFA, -32)
          CFI R5H Frame(CFA, -30)
          CFI R6L Frame(CFA, -28)
          CFI R6H Frame(CFA, -26)
          CFI R7L Frame(CFA, -24)
          CFI R7H Frame(CFA, -22)
          CFI R8L Frame(CFA, -20)
          CFI R8H Frame(CFA, -18)
          CFI R9L Frame(CFA, -16)
          CFI R9H Frame(CFA, -14)
          CFI R10L Frame(CFA, -12)
          CFI R10H Frame(CFA, -10)
          CFI R11L Frame(CFA, -8)
          CFI R11H Frame(CFA, -6)
          CFI CFA SP+36
        PUSH.B  R12
          CFI CFA SP+38
        PUSH.B  R13
          CFI CFA SP+40
        PUSH.B  R14
          CFI CFA SP+42
        SUBA    #0x2c, SP
          CFI CFA SP+86
        MOV.B   R15, R10
        MOVA    SP, R12
        ADDA    #0x14, R12
        MOVA    #`?<Constant {(4.90000009E-1F), (5.0000000744E-2`, R14
        MOVA    #0xc, R13
          CFI FunCall ?CopyMemoryWords20
        CALLA   #?CopyMemoryWords20
        MOV.B   #0x0, R5
        MOVA    SP, R4
        MOV.W   #0x0, R8
        MOV.W   #0x3f80, R9
        MOV.W   0x56(SP), R12
        MOV.W   0x58(SP), R7
        MOV.W   R7, R13
        MOV.W   #0x0, R14
        MOV.W   #0x0, R15
          CFI FunCall ?FLT_LT
        CALLA   #?FLT_LT
        JNC     ??OLED_DispFolatAt_7
        XOR.W   #0x8000, R7
        MOV.B   #0x2d, 0(SP)
        ADDA    #0x1, R4
??OLED_DispFolatAt_7:
        CMP.B   #0x6, R10
        JNC     ??OLED_DispFolatAt_8
        MOV.B   #0x5, R10
??OLED_DispFolatAt_8:
        MOVA    SP, R15
        ADDA    #0x14, R15
        MOV.B   R10, R14
        RLAM.A  #0x2, R14
        ADDA    R15, R14
        MOV.W   R7, R13
        MOVA    R14, R15
        MOV.W   @R15, R14
        MOV.W   0x2(R15), R15
          CFI FunCall _Add32f
        CALLA   #_Add32f
        MOV.W   R12, R6
        MOV.W   R13, R7
        JMP     ??OLED_DispFolatAt_5
??OLED_DispFolatAt_0:
        MOV.W   R8, R12
        MOV.W   R9, R13
        CALLA   #?Subroutine19
??CrossCallReturnLabel_30:
        ADD.B   #0x1, R5
??OLED_DispFolatAt_5:
        CALLA   #?Subroutine20
??CrossCallReturnLabel_33:
          CFI FunCall ?FLT_GE
        CALLA   #?FLT_GE
        JC      ??OLED_DispFolatAt_0
        CMP.B   #0x0, R5
        JNE     ??OLED_DispFolatAt_1
        MOV.B   #0x30, 0(R4)
        ADDA    #0x1, R4
        JMP     ??OLED_DispFolatAt_6
??OLED_DispFolatAt_1:
        MOV.W   R8, R12
        MOV.W   R9, R13
        MOV.W   #0x0, R14
        MOV.W   #0x4120, R15
          CFI FunCall _Div32f
        CALLA   #_Div32f
        MOV.W   #0x0, R14
        MOV.W   #0x3f00, R15
          CFI FunCall _Add32f
        CALLA   #_Add32f
          CFI FunCall _Cast32fto32s
        CALLA   #_Cast32fto32s
        MOV.W   R12, R13
        RLA.W   R13
        SUBC.W  R13, R13
        XOR.W   #0xffff, R13
          CFI FunCall _Cast32sto32f
        CALLA   #_Cast32sto32f
        MOV.W   R12, R8
        MOV.W   R13, R9
        CALLA   #?Subroutine20
??CrossCallReturnLabel_34:
          CFI FunCall _Div32f
        CALLA   #_Div32f
        CALLA   #?Subroutine8
??CrossCallReturnLabel_13:
        MOV.W   R8, R14
        MOV.W   R9, R15
          CFI FunCall _Mul32f
        CALLA   #_Mul32f
        MOV.W   R12, R14
        MOV.W   R13, R15
        MOV.W   R6, R12
        MOV.W   R7, R13
          CFI FunCall _Sub32f
        CALLA   #_Sub32f
        MOV.W   R12, R6
        MOV.W   R13, R7
        ADD.B   #0xff, R5
        JNE     ??OLED_DispFolatAt_1
??OLED_DispFolatAt_6:
        CMP.B   #0x0, R10
        JEQ     ??OLED_DispFolatAt_4
        MOV.B   #0x2e, 0(R4)
        ADDA    #0x1, R4
??OLED_DispFolatAt_2:
        MOV.W   R6, R12
        MOV.W   R7, R13
        CALLA   #?Subroutine19
??CrossCallReturnLabel_31:
        CALLA   #?Subroutine8
??CrossCallReturnLabel_12:
        MOV.W   R12, R14
        MOV.W   R13, R15
        MOV.W   R8, R12
        MOV.W   R9, R13
          CFI FunCall _Sub32f
        CALLA   #_Sub32f
        MOV.W   R12, R6
        MOV.W   R13, R7
        ADD.B   #0xff, R10
        JNE     ??OLED_DispFolatAt_2
??OLED_DispFolatAt_4:
        MOV.B   #0x0, 0(R4)
        MOVA    SP, R15
        MOV.B   0x2c(SP), R14
        MOV.B   0x2e(SP), R13
        MOV.B   0x30(SP), R12
          CFI FunCall OLED_DispStringAt
        CALLA   #OLED_DispStringAt
        ADDA    #0x32, SP
          CFI CFA SP+36
        POPM.A  #0x8, R11
          CFI R10H SameValue
          CFI R11H SameValue
          CFI R4H SameValue
          CFI R5H SameValue
          CFI R6H SameValue
          CFI R7H SameValue
          CFI R8H SameValue
          CFI R9H SameValue
          CFI R10L SameValue
          CFI R11L SameValue
          CFI R4L SameValue
          CFI R5L SameValue
          CFI R6L SameValue
          CFI R7L SameValue
          CFI R8L SameValue
          CFI R9L SameValue
          CFI CFA SP+4
        RETA
          CFI EndBlock cfiBlock115

        RSEG `CODE`:CODE:REORDER:NOROOT(1)
?Subroutine19:
          CFI Block cfiCond116 Using cfiCommon0
          CFI Function OLED_DispFolatAt
          CFI Conditional ??CrossCallReturnLabel_30
          CFI R4L Frame(CFA, -36)
          CFI R4H Frame(CFA, -34)
          CFI R5L Frame(CFA, -32)
          CFI R5H Frame(CFA, -30)
          CFI R6L Frame(CFA, -28)
          CFI R6H Frame(CFA, -26)
          CFI R7L Frame(CFA, -24)
          CFI R7H Frame(CFA, -22)
          CFI R8L Frame(CFA, -20)
          CFI R8H Frame(CFA, -18)
          CFI R9L Frame(CFA, -16)
          CFI R9H Frame(CFA, -14)
          CFI R10L Frame(CFA, -12)
          CFI R10H Frame(CFA, -10)
          CFI R11L Frame(CFA, -8)
          CFI R11H Frame(CFA, -6)
          CFI CFA SP+90
          CFI Block cfiCond117 Using cfiCommon0
          CFI (cfiCond117) Function OLED_DispFolatAt
          CFI (cfiCond117) Conditional ??CrossCallReturnLabel_31
          CFI (cfiCond117) R4L Frame(CFA, -36)
          CFI (cfiCond117) R4H Frame(CFA, -34)
          CFI (cfiCond117) R5L Frame(CFA, -32)
          CFI (cfiCond117) R5H Frame(CFA, -30)
          CFI (cfiCond117) R6L Frame(CFA, -28)
          CFI (cfiCond117) R6H Frame(CFA, -26)
          CFI (cfiCond117) R7L Frame(CFA, -24)
          CFI (cfiCond117) R7H Frame(CFA, -22)
          CFI (cfiCond117) R8L Frame(CFA, -20)
          CFI (cfiCond117) R8H Frame(CFA, -18)
          CFI (cfiCond117) R9L Frame(CFA, -16)
          CFI (cfiCond117) R9H Frame(CFA, -14)
          CFI (cfiCond117) R10L Frame(CFA, -12)
          CFI (cfiCond117) R10H Frame(CFA, -10)
          CFI (cfiCond117) R11L Frame(CFA, -8)
          CFI (cfiCond117) R11H Frame(CFA, -6)
          CFI (cfiCond117) CFA SP+90
          CFI Block cfiPicker118 Using cfiCommon1
          CFI (cfiPicker118) NoFunction
          CFI (cfiPicker118) Picker
        MOV.W   #0x0, R14
        MOV.W   #0x4120, R15
          CFI (cfiCond116) FunCall OLED_DispFolatAt _Mul32f
          CFI (cfiCond116) FunCall OLED_DispFolatAt _Mul32f
        CALLA   #_Mul32f
        MOV.W   R12, R8
        MOV.W   R13, R9
        RETA
          CFI EndBlock cfiCond116
          CFI EndBlock cfiCond117
          CFI EndBlock cfiPicker118

        RSEG `CODE`:CODE:REORDER:NOROOT(1)
?Subroutine8:
          CFI Block cfiCond119 Using cfiCommon0
          CFI Function OLED_DispFolatAt
          CFI Conditional ??CrossCallReturnLabel_13
          CFI R4L Frame(CFA, -36)
          CFI R4H Frame(CFA, -34)
          CFI R5L Frame(CFA, -32)
          CFI R5H Frame(CFA, -30)
          CFI R6L Frame(CFA, -28)
          CFI R6H Frame(CFA, -26)
          CFI R7L Frame(CFA, -24)
          CFI R7H Frame(CFA, -22)
          CFI R8L Frame(CFA, -20)
          CFI R8H Frame(CFA, -18)
          CFI R9L Frame(CFA, -16)
          CFI R9H Frame(CFA, -14)
          CFI R10L Frame(CFA, -12)
          CFI R10H Frame(CFA, -10)
          CFI R11L Frame(CFA, -8)
          CFI R11H Frame(CFA, -6)
          CFI CFA SP+90
          CFI Block cfiCond120 Using cfiCommon0
          CFI (cfiCond120) Function OLED_DispFolatAt
          CFI (cfiCond120) Conditional ??CrossCallReturnLabel_12
          CFI (cfiCond120) R4L Frame(CFA, -36)
          CFI (cfiCond120) R4H Frame(CFA, -34)
          CFI (cfiCond120) R5L Frame(CFA, -32)
          CFI (cfiCond120) R5H Frame(CFA, -30)
          CFI (cfiCond120) R6L Frame(CFA, -28)
          CFI (cfiCond120) R6H Frame(CFA, -26)
          CFI (cfiCond120) R7L Frame(CFA, -24)
          CFI (cfiCond120) R7H Frame(CFA, -22)
          CFI (cfiCond120) R8L Frame(CFA, -20)
          CFI (cfiCond120) R8H Frame(CFA, -18)
          CFI (cfiCond120) R9L Frame(CFA, -16)
          CFI (cfiCond120) R9H Frame(CFA, -14)
          CFI (cfiCond120) R10L Frame(CFA, -12)
          CFI (cfiCond120) R10H Frame(CFA, -10)
          CFI (cfiCond120) R11L Frame(CFA, -8)
          CFI (cfiCond120) R11H Frame(CFA, -6)
          CFI (cfiCond120) CFA SP+90
          CFI Block cfiPicker121 Using cfiCommon1
          CFI (cfiPicker121) NoFunction
          CFI (cfiPicker121) Picker
          CFI (cfiCond119) FunCall OLED_DispFolatAt _Cast32fto32s
          CFI (cfiCond119) FunCall OLED_DispFolatAt _Cast32fto32s
        CALLA   #_Cast32fto32s
        MOV.B   R12, R12
        MOV.B   R12, R15
        ADD.B   #0x30, R15
        MOV.B   R15, 0(R4)
        ADDA    #0x1, R4
        MOV.W   #0x0, R13
          CFI (cfiCond119) TailCall OLED_DispFolatAt _Cast32uto32f
          CFI (cfiCond119) TailCall OLED_DispFolatAt _Cast32uto32f
        BRA     #_Cast32uto32f
          CFI EndBlock cfiCond119
          CFI EndBlock cfiCond120
          CFI EndBlock cfiPicker121

        RSEG `CODE`:CODE:REORDER:NOROOT(1)
OLED_DispChineseAt:
          CFI Block cfiBlock122 Using cfiCommon0
          CFI Function OLED_DispChineseAt
        PUSHM.A #0x8, R11
          CFI R4L Frame(CFA, -36)
          CFI R4H Frame(CFA, -34)
          CFI R5L Frame(CFA, -32)
          CFI R5H Frame(CFA, -30)
          CFI R6L Frame(CFA, -28)
          CFI R6H Frame(CFA, -26)
          CFI R7L Frame(CFA, -24)
          CFI R7H Frame(CFA, -22)
          CFI R8L Frame(CFA, -20)
          CFI R8H Frame(CFA, -18)
          CFI R9L Frame(CFA, -16)
          CFI R9H Frame(CFA, -14)
          CFI R10L Frame(CFA, -12)
          CFI R10H Frame(CFA, -10)
          CFI R11L Frame(CFA, -8)
          CFI R11H Frame(CFA, -6)
          CFI CFA SP+36
        MOV.B   R13, R6
        MOV.B   R14, R7
        MOVA    R15, R11
        MOV.B   R12, R12
        ADDA    R12, R12
        MOVA    R12, R15
        ADDA    R12, R12
        ADDA    R15, R12
        MOVA    R12, R10
        JMP     ??OLED_DispChineseAt_5
??OLED_DispChineseAt_0:
        ADD.B   #0x1, R9
        MOVA    @R14+, R15
        CMP.B   @R15+, R13
        JNE     ??OLED_DispChineseAt_6
        CMP.B   @R15+, 0x1(R11)
        JEQ     ??OLED_DispChineseAt_7
??OLED_DispChineseAt_6:
        ADD.B   #0x1, R9
        CMP.B   #0x8, R9
        JNC     ??OLED_DispChineseAt_8
??OLED_DispChineseAt_3:
        ADDA    #0x2, R11
??OLED_DispChineseAt_5:
        MOV.B   @R11, R13
        CMP.B   #0x0, R13
        JEQ     ??OLED_DispChineseAt_9
        MOV.B   #0x0, R9
        MOVA    #FONT_CHINESE_TABLE, R14
??OLED_DispChineseAt_8:
        MOVA    @R14+, R15
        CMP.B   @R15+, R13
        JNE     ??OLED_DispChineseAt_0
        CMP.B   @R15+, 0x1(R11)
        JNE     ??OLED_DispChineseAt_0
??OLED_DispChineseAt_7:
        MOVX.B  Font + 1(R10), R4
        MOVX.A  Font + 2(R10), R8
        MOV.W   #0x8, R14
        PUSH.W  SR
          CFI CFA SP+38
        CALLA   #?Subroutine15
??CrossCallReturnLabel_27:
        MOV.B   R4, &__iar_HWMUL + 8           // OP2
        MOV.W   &__iar_HWMUL + 10, R12         // RESLO
        NOP
        POP.W   SR
          CFI CFA SP+36
          CFI FunCall ?DivMod16s
        CALLA   #?DivMod16s
        PUSH.W  SR
          CFI CFA SP+38
        DINT
        NOP
        MOV.B   R9, &__iar_HWMUL               // MPY
        MOV.W   R12, &__iar_HWMUL + 8          // OP2
        MOV.W   &__iar_HWMUL + 10, R14         // RESLO
        NOP
        POP.W   SR
          CFI CFA SP+36
        RLAM.A  #0x4, R14
        RRAM.A  #0x4, R14
        ADDA    R14, R8
        MOV.B   #0x0, R9
        CMP.B   #0x0, R4
        JEQ     ??OLED_DispChineseAt_10
??OLED_DispChineseAt_2:
        MOV.B   R7, R13
        MOV.B   R9, R12
        RRUM.W  #0x3, R12
        ADD.B   R6, R12
          CFI FunCall OLED_SetPosition
        CALLA   #OLED_SetPosition
        MOVX.B  Font(R10), R4
        CMP.B   #0x0, R4
        JEQ     ??OLED_DispChineseAt_11
??OLED_DispChineseAt_1:
        MOV.B   @R8+, R14
        CALLA   #?Subroutine0
??CrossCallReturnLabel_1:
        PUSHM.W #0x2, R13
          CFI CFA SP+40
        POPM.A  #0x1, R13
          CFI CFA SP+36
        CALLA   #?Subroutine5
??CrossCallReturnLabel_9:
        CALLA   #??Subroutine1_1
??CrossCallReturnLabel_46:
        ADD.B   #0xff, R4
        JNE     ??OLED_DispChineseAt_1
??OLED_DispChineseAt_11:
        ADD.B   #0x8, R9
        CMPX.B  Font + 1(R10), R9
        JNC     ??OLED_DispChineseAt_2
??OLED_DispChineseAt_10:
        MOVX.B  Font(R10), R15
        ADD.B   R15, R7
        MOV.W   #0x80, R14
        SUB.W   R15, R14
        CMP.W   R7, R14
        JGE     ??OLED_DispChineseAt_3
        MOV.B   #0x0, R7
        MOVX.B  Font + 1(R10), R14
        MOV.B   R14, R15
        RRUM.W  #0x3, R15
        ADD.B   R15, R6
        CALLA   #?Subroutine17
??CrossCallReturnLabel_56:
        CMP.W   R6, R12
        JGE     ??OLED_DispChineseAt_3
        MOV.B   #0x0, R6
        JMP     ??OLED_DispChineseAt_3
??OLED_DispChineseAt_9:
        POPM.A  #0x8, R11
          CFI R10H SameValue
          CFI R11H SameValue
          CFI R4H SameValue
          CFI R5H SameValue
          CFI R6H SameValue
          CFI R7H SameValue
          CFI R8H SameValue
          CFI R9H SameValue
          CFI R10L SameValue
          CFI R11L SameValue
          CFI R4L SameValue
          CFI R5L SameValue
          CFI R6L SameValue
          CFI R7L SameValue
          CFI R8L SameValue
          CFI R9L SameValue
          CFI CFA SP+4
        RETA
          CFI EndBlock cfiBlock122
        REQUIRE _A_PDOUT_L
//  562 /*******************************************************************************
//  563 *  函数名称：OLEDPrintf(OLED_FONT font,uint8_t y,uint8_t x,const char * fmt,...)
//  564 *  功能说明：OLED打印
//  565 *  参数说明：OLED_FONT font：字体（OLED_FONT枚举）
//  566              
//  567 *  函数返回：无
//  568 *  使用示例：
//  569 ********************************************************************************/
//  570 void OLED_Printf(OLED_FONT font,const char * fmt,...)
//  571 {
//  572   char OLED_String[128];

        RSEG DATA20_Z:DATA:SORT:NOROOT(0)
        REQUIRE ?cstart_init_zero20
//  573   static uint8_t x=0,y=0;
??x:
        DS8 1

        RSEG DATA20_Z:DATA:SORT:NOROOT(0)
        REQUIRE ?cstart_init_zero20
??y:
        DS8 1

        RSEG DATA20_ID:CONST:SORT:NOROOT(1)
`?<Initializer for FONT_CHINESE_TABLE>`:
        DATA32
        DC32 `?<Constant "\\310\\375">`, `?<Constant "\\317\\277">`
        DC32 `?<Constant "\\264\\363">`, `?<Constant "\\321\\247">`
        DC32 `?<Constant "\\267\\311">`, `?<Constant "\\313\\274">`
        DC32 `?<Constant "\\277\\250">`, `?<Constant "\\266\\373">`

        RSEG `CODE`:CODE:NOROOT(1)
?Subroutine1:
          CFI Block cfiCond123 Using cfiCommon0
          CFI Function OLED_Printf
          CFI Conditional ??CrossCallReturnLabel_52
          CFI R4L Frame(CFA, -36)
          CFI R4H Frame(CFA, -34)
          CFI R5L Frame(CFA, -32)
          CFI R5H Frame(CFA, -30)
          CFI R6L Frame(CFA, -28)
          CFI R6H Frame(CFA, -26)
          CFI R7L Frame(CFA, -24)
          CFI R7H Frame(CFA, -22)
          CFI R8L Frame(CFA, -20)
          CFI R8H Frame(CFA, -18)
          CFI R9L Frame(CFA, -16)
          CFI R9H Frame(CFA, -14)
          CFI R10L Frame(CFA, -12)
          CFI R10H Frame(CFA, -10)
          CFI R11L Frame(CFA, -8)
          CFI R11H Frame(CFA, -6)
          CFI CFA SP+180
          CFI Block cfiCond124 Using cfiCommon0
          CFI (cfiCond124) Function OLED_Printf
          CFI (cfiCond124) Conditional ??CrossCallReturnLabel_51
          CFI (cfiCond124) R4L Frame(CFA, -36)
          CFI (cfiCond124) R4H Frame(CFA, -34)
          CFI (cfiCond124) R5L Frame(CFA, -32)
          CFI (cfiCond124) R5H Frame(CFA, -30)
          CFI (cfiCond124) R6L Frame(CFA, -28)
          CFI (cfiCond124) R6H Frame(CFA, -26)
          CFI (cfiCond124) R7L Frame(CFA, -24)
          CFI (cfiCond124) R7H Frame(CFA, -22)
          CFI (cfiCond124) R8L Frame(CFA, -20)
          CFI (cfiCond124) R8H Frame(CFA, -18)
          CFI (cfiCond124) R9L Frame(CFA, -16)
          CFI (cfiCond124) R9H Frame(CFA, -14)
          CFI (cfiCond124) R10L Frame(CFA, -12)
          CFI (cfiCond124) R10H Frame(CFA, -10)
          CFI (cfiCond124) R11L Frame(CFA, -8)
          CFI (cfiCond124) R11H Frame(CFA, -6)
          CFI (cfiCond124) CFA SP+180
          CFI Block cfiPicker125 Using cfiCommon1
          CFI (cfiPicker125) NoFunction
          CFI (cfiPicker125) Picker
        MOV.B   R14, 0(R6)
          CFI EndBlock cfiCond123
          CFI EndBlock cfiCond124
          CFI EndBlock cfiPicker125
        REQUIRE ??Subroutine1_0
        // Fall through to label ??Subroutine1_0

        RSEG `CODE`:CODE:NOROOT(1)
??Subroutine1_0:
          CFI Block cfiCond126 Using cfiCommon0
          CFI Function OLED_Clear
          CFI Conditional ??CrossCallReturnLabel_50
          CFI R6L Frame(CFA, -28)
          CFI R6H Frame(CFA, -26)
          CFI R7L Frame(CFA, -24)
          CFI R7H Frame(CFA, -22)
          CFI R8L Frame(CFA, -20)
          CFI R8H Frame(CFA, -18)
          CFI R9L Frame(CFA, -16)
          CFI R9H Frame(CFA, -14)
          CFI R10L Frame(CFA, -12)
          CFI R10H Frame(CFA, -10)
          CFI R11L Frame(CFA, -8)
          CFI R11H Frame(CFA, -6)
          CFI CFA SP+32
          CFI Block cfiCond127 Using cfiCommon0
          CFI (cfiCond127) Function OLED_PrintfAt
          CFI (cfiCond127) Conditional ??CrossCallReturnLabel_49
          CFI (cfiCond127) R4L Frame(CFA, -36)
          CFI (cfiCond127) R4H Frame(CFA, -34)
          CFI (cfiCond127) R5L Frame(CFA, -32)
          CFI (cfiCond127) R5H Frame(CFA, -30)
          CFI (cfiCond127) R6L Frame(CFA, -28)
          CFI (cfiCond127) R6H Frame(CFA, -26)
          CFI (cfiCond127) R7L Frame(CFA, -24)
          CFI (cfiCond127) R7H Frame(CFA, -22)
          CFI (cfiCond127) R8L Frame(CFA, -20)
          CFI (cfiCond127) R8H Frame(CFA, -18)
          CFI (cfiCond127) R9L Frame(CFA, -16)
          CFI (cfiCond127) R9H Frame(CFA, -14)
          CFI (cfiCond127) R10L Frame(CFA, -12)
          CFI (cfiCond127) R10H Frame(CFA, -10)
          CFI (cfiCond127) R11L Frame(CFA, -8)
          CFI (cfiCond127) R11H Frame(CFA, -6)
          CFI (cfiCond127) CFA SP+178
          CFI Block cfiCond128 Using cfiCommon0
          CFI (cfiCond128) Function OLED_Printf
          CFI (cfiCond128) Conditional ??CrossCallReturnLabel_52
          CFI (cfiCond128) R4L Frame(CFA, -36)
          CFI (cfiCond128) R4H Frame(CFA, -34)
          CFI (cfiCond128) R5L Frame(CFA, -32)
          CFI (cfiCond128) R5H Frame(CFA, -30)
          CFI (cfiCond128) R6L Frame(CFA, -28)
          CFI (cfiCond128) R6H Frame(CFA, -26)
          CFI (cfiCond128) R7L Frame(CFA, -24)
          CFI (cfiCond128) R7H Frame(CFA, -22)
          CFI (cfiCond128) R8L Frame(CFA, -20)
          CFI (cfiCond128) R8H Frame(CFA, -18)
          CFI (cfiCond128) R9L Frame(CFA, -16)
          CFI (cfiCond128) R9H Frame(CFA, -14)
          CFI (cfiCond128) R10L Frame(CFA, -12)
          CFI (cfiCond128) R10H Frame(CFA, -10)
          CFI (cfiCond128) R11L Frame(CFA, -8)
          CFI (cfiCond128) R11H Frame(CFA, -6)
          CFI (cfiCond128) CFA SP+180
          CFI Block cfiCond129 Using cfiCommon0
          CFI (cfiCond129) Function OLED_Printf
          CFI (cfiCond129) Conditional ??CrossCallReturnLabel_51
          CFI (cfiCond129) R4L Frame(CFA, -36)
          CFI (cfiCond129) R4H Frame(CFA, -34)
          CFI (cfiCond129) R5L Frame(CFA, -32)
          CFI (cfiCond129) R5H Frame(CFA, -30)
          CFI (cfiCond129) R6L Frame(CFA, -28)
          CFI (cfiCond129) R6H Frame(CFA, -26)
          CFI (cfiCond129) R7L Frame(CFA, -24)
          CFI (cfiCond129) R7H Frame(CFA, -22)
          CFI (cfiCond129) R8L Frame(CFA, -20)
          CFI (cfiCond129) R8H Frame(CFA, -18)
          CFI (cfiCond129) R9L Frame(CFA, -16)
          CFI (cfiCond129) R9H Frame(CFA, -14)
          CFI (cfiCond129) R10L Frame(CFA, -12)
          CFI (cfiCond129) R10H Frame(CFA, -10)
          CFI (cfiCond129) R11L Frame(CFA, -8)
          CFI (cfiCond129) R11H Frame(CFA, -6)
          CFI (cfiCond129) CFA SP+180
          CFI Block cfiPicker130 Using cfiCommon1
          CFI (cfiPicker130) NoFunction
          CFI (cfiPicker130) Picker
        MOV.B   #0x0, R13
          CFI EndBlock cfiCond126
          CFI EndBlock cfiCond127
          CFI EndBlock cfiCond128
          CFI EndBlock cfiCond129
          CFI EndBlock cfiPicker130
        REQUIRE ??Subroutine1_1
        // Fall through to label ??Subroutine1_1

        RSEG `CODE`:CODE:REORDER:NOROOT(1)
??Subroutine1_1:
          CFI Block cfiCond131 Using cfiCommon0
          CFI Function OLED_FillPart
          CFI Conditional ??CrossCallReturnLabel_48
          CFI R4L Frame(CFA, -36)
          CFI R4H Frame(CFA, -34)
          CFI R5L Frame(CFA, -32)
          CFI R5H Frame(CFA, -30)
          CFI R6L Frame(CFA, -28)
          CFI R6H Frame(CFA, -26)
          CFI R7L Frame(CFA, -24)
          CFI R7H Frame(CFA, -22)
          CFI R8L Frame(CFA, -20)
          CFI R8H Frame(CFA, -18)
          CFI R9L Frame(CFA, -16)
          CFI R9H Frame(CFA, -14)
          CFI R10L Frame(CFA, -12)
          CFI R10H Frame(CFA, -10)
          CFI R11L Frame(CFA, -8)
          CFI R11H Frame(CFA, -6)
          CFI CFA SP+40
          CFI Block cfiCond132 Using cfiCommon0
          CFI (cfiCond132) Function OLED_DispChar
          CFI (cfiCond132) Conditional ??CrossCallReturnLabel_47
          CFI (cfiCond132) R4L Frame(CFA, -36)
          CFI (cfiCond132) R4H Frame(CFA, -34)
          CFI (cfiCond132) R5L Frame(CFA, -32)
          CFI (cfiCond132) R5H Frame(CFA, -30)
          CFI (cfiCond132) R6L Frame(CFA, -28)
          CFI (cfiCond132) R6H Frame(CFA, -26)
          CFI (cfiCond132) R7L Frame(CFA, -24)
          CFI (cfiCond132) R7H Frame(CFA, -22)
          CFI (cfiCond132) R8L Frame(CFA, -20)
          CFI (cfiCond132) R8H Frame(CFA, -18)
          CFI (cfiCond132) R9L Frame(CFA, -16)
          CFI (cfiCond132) R9H Frame(CFA, -14)
          CFI (cfiCond132) R10L Frame(CFA, -12)
          CFI (cfiCond132) R10H Frame(CFA, -10)
          CFI (cfiCond132) R11L Frame(CFA, -8)
          CFI (cfiCond132) R11H Frame(CFA, -6)
          CFI (cfiCond132) CFA SP+40
          CFI Block cfiCond133 Using cfiCommon0
          CFI (cfiCond133) Function OLED_DispChineseAt
          CFI (cfiCond133) Conditional ??CrossCallReturnLabel_46
          CFI (cfiCond133) R4L Frame(CFA, -36)
          CFI (cfiCond133) R4H Frame(CFA, -34)
          CFI (cfiCond133) R5L Frame(CFA, -32)
          CFI (cfiCond133) R5H Frame(CFA, -30)
          CFI (cfiCond133) R6L Frame(CFA, -28)
          CFI (cfiCond133) R6H Frame(CFA, -26)
          CFI (cfiCond133) R7L Frame(CFA, -24)
          CFI (cfiCond133) R7H Frame(CFA, -22)
          CFI (cfiCond133) R8L Frame(CFA, -20)
          CFI (cfiCond133) R8H Frame(CFA, -18)
          CFI (cfiCond133) R9L Frame(CFA, -16)
          CFI (cfiCond133) R9H Frame(CFA, -14)
          CFI (cfiCond133) R10L Frame(CFA, -12)
          CFI (cfiCond133) R10H Frame(CFA, -10)
          CFI (cfiCond133) R11L Frame(CFA, -8)
          CFI (cfiCond133) R11H Frame(CFA, -6)
          CFI (cfiCond133) CFA SP+40
          CFI Block cfiCond134 Using cfiCommon0
          CFI (cfiCond134) Function OLED_Clear
          CFI (cfiCond134) Conditional ??CrossCallReturnLabel_50
          CFI (cfiCond134) R6L Frame(CFA, -28)
          CFI (cfiCond134) R6H Frame(CFA, -26)
          CFI (cfiCond134) R7L Frame(CFA, -24)
          CFI (cfiCond134) R7H Frame(CFA, -22)
          CFI (cfiCond134) R8L Frame(CFA, -20)
          CFI (cfiCond134) R8H Frame(CFA, -18)
          CFI (cfiCond134) R9L Frame(CFA, -16)
          CFI (cfiCond134) R9H Frame(CFA, -14)
          CFI (cfiCond134) R10L Frame(CFA, -12)
          CFI (cfiCond134) R10H Frame(CFA, -10)
          CFI (cfiCond134) R11L Frame(CFA, -8)
          CFI (cfiCond134) R11H Frame(CFA, -6)
          CFI (cfiCond134) CFA SP+32
          CFI Block cfiCond135 Using cfiCommon0
          CFI (cfiCond135) Function OLED_PrintfAt
          CFI (cfiCond135) Conditional ??CrossCallReturnLabel_49
          CFI (cfiCond135) R4L Frame(CFA, -36)
          CFI (cfiCond135) R4H Frame(CFA, -34)
          CFI (cfiCond135) R5L Frame(CFA, -32)
          CFI (cfiCond135) R5H Frame(CFA, -30)
          CFI (cfiCond135) R6L Frame(CFA, -28)
          CFI (cfiCond135) R6H Frame(CFA, -26)
          CFI (cfiCond135) R7L Frame(CFA, -24)
          CFI (cfiCond135) R7H Frame(CFA, -22)
          CFI (cfiCond135) R8L Frame(CFA, -20)
          CFI (cfiCond135) R8H Frame(CFA, -18)
          CFI (cfiCond135) R9L Frame(CFA, -16)
          CFI (cfiCond135) R9H Frame(CFA, -14)
          CFI (cfiCond135) R10L Frame(CFA, -12)
          CFI (cfiCond135) R10H Frame(CFA, -10)
          CFI (cfiCond135) R11L Frame(CFA, -8)
          CFI (cfiCond135) R11H Frame(CFA, -6)
          CFI (cfiCond135) CFA SP+178
          CFI Block cfiCond136 Using cfiCommon0
          CFI (cfiCond136) Function OLED_Printf
          CFI (cfiCond136) Conditional ??CrossCallReturnLabel_52
          CFI (cfiCond136) R4L Frame(CFA, -36)
          CFI (cfiCond136) R4H Frame(CFA, -34)
          CFI (cfiCond136) R5L Frame(CFA, -32)
          CFI (cfiCond136) R5H Frame(CFA, -30)
          CFI (cfiCond136) R6L Frame(CFA, -28)
          CFI (cfiCond136) R6H Frame(CFA, -26)
          CFI (cfiCond136) R7L Frame(CFA, -24)
          CFI (cfiCond136) R7H Frame(CFA, -22)
          CFI (cfiCond136) R8L Frame(CFA, -20)
          CFI (cfiCond136) R8H Frame(CFA, -18)
          CFI (cfiCond136) R9L Frame(CFA, -16)
          CFI (cfiCond136) R9H Frame(CFA, -14)
          CFI (cfiCond136) R10L Frame(CFA, -12)
          CFI (cfiCond136) R10H Frame(CFA, -10)
          CFI (cfiCond136) R11L Frame(CFA, -8)
          CFI (cfiCond136) R11H Frame(CFA, -6)
          CFI (cfiCond136) CFA SP+180
          CFI Block cfiCond137 Using cfiCommon0
          CFI (cfiCond137) Function OLED_Printf
          CFI (cfiCond137) Conditional ??CrossCallReturnLabel_51
          CFI (cfiCond137) R4L Frame(CFA, -36)
          CFI (cfiCond137) R4H Frame(CFA, -34)
          CFI (cfiCond137) R5L Frame(CFA, -32)
          CFI (cfiCond137) R5H Frame(CFA, -30)
          CFI (cfiCond137) R6L Frame(CFA, -28)
          CFI (cfiCond137) R6H Frame(CFA, -26)
          CFI (cfiCond137) R7L Frame(CFA, -24)
          CFI (cfiCond137) R7H Frame(CFA, -22)
          CFI (cfiCond137) R8L Frame(CFA, -20)
          CFI (cfiCond137) R8H Frame(CFA, -18)
          CFI (cfiCond137) R9L Frame(CFA, -16)
          CFI (cfiCond137) R9H Frame(CFA, -14)
          CFI (cfiCond137) R10L Frame(CFA, -12)
          CFI (cfiCond137) R10H Frame(CFA, -10)
          CFI (cfiCond137) R11L Frame(CFA, -8)
          CFI (cfiCond137) R11H Frame(CFA, -6)
          CFI (cfiCond137) CFA SP+180
          CFI Block cfiPicker138 Using cfiCommon1
          CFI (cfiPicker138) NoFunction
          CFI (cfiPicker138) Picker
        MOV.B   #0x3, R12
          CFI (cfiCond131) TailCall OLED_FillPart SPI_SendReadByte
          CFI (cfiCond132) TailCall OLED_DispChar SPI_SendReadByte
          CFI (cfiCond133) TailCall OLED_DispChineseAt SPI_SendReadByte
          CFI (cfiCond134) TailCall OLED_Clear SPI_SendReadByte
          CFI (cfiCond135) TailCall OLED_PrintfAt SPI_SendReadByte
          CFI (cfiCond136) TailCall OLED_Printf SPI_SendReadByte
          CFI (cfiCond136) TailCall OLED_Printf SPI_SendReadByte
        BRA     #SPI_SendReadByte
          CFI EndBlock cfiCond131
          CFI EndBlock cfiCond132
          CFI EndBlock cfiCond133
          CFI EndBlock cfiCond134
          CFI EndBlock cfiCond135
          CFI EndBlock cfiCond136
          CFI EndBlock cfiCond137
          CFI EndBlock cfiPicker138

        RSEG `CODE`:CODE:REORDER:NOROOT(1)
?Subroutine5:
          CFI Block cfiCond139 Using cfiCommon0
          CFI Function OLED_DispChar
          CFI Conditional ??CrossCallReturnLabel_8
          CFI R4L Frame(CFA, -36)
          CFI R4H Frame(CFA, -34)
          CFI R5L Frame(CFA, -32)
          CFI R5H Frame(CFA, -30)
          CFI R6L Frame(CFA, -28)
          CFI R6H Frame(CFA, -26)
          CFI R7L Frame(CFA, -24)
          CFI R7H Frame(CFA, -22)
          CFI R8L Frame(CFA, -20)
          CFI R8H Frame(CFA, -18)
          CFI R9L Frame(CFA, -16)
          CFI R9H Frame(CFA, -14)
          CFI R10L Frame(CFA, -12)
          CFI R10H Frame(CFA, -10)
          CFI R11L Frame(CFA, -8)
          CFI R11H Frame(CFA, -6)
          CFI CFA SP+40
          CFI Block cfiCond140 Using cfiCommon0
          CFI (cfiCond140) Function OLED_DispChineseAt
          CFI (cfiCond140) Conditional ??CrossCallReturnLabel_9
          CFI (cfiCond140) R4L Frame(CFA, -36)
          CFI (cfiCond140) R4H Frame(CFA, -34)
          CFI (cfiCond140) R5L Frame(CFA, -32)
          CFI (cfiCond140) R5H Frame(CFA, -30)
          CFI (cfiCond140) R6L Frame(CFA, -28)
          CFI (cfiCond140) R6H Frame(CFA, -26)
          CFI (cfiCond140) R7L Frame(CFA, -24)
          CFI (cfiCond140) R7H Frame(CFA, -22)
          CFI (cfiCond140) R8L Frame(CFA, -20)
          CFI (cfiCond140) R8H Frame(CFA, -18)
          CFI (cfiCond140) R9L Frame(CFA, -16)
          CFI (cfiCond140) R9H Frame(CFA, -14)
          CFI (cfiCond140) R10L Frame(CFA, -12)
          CFI (cfiCond140) R10H Frame(CFA, -10)
          CFI (cfiCond140) R11L Frame(CFA, -8)
          CFI (cfiCond140) R11H Frame(CFA, -6)
          CFI (cfiCond140) CFA SP+40
          CFI Block cfiPicker141 Using cfiCommon1
          CFI (cfiPicker141) NoFunction
          CFI (cfiPicker141) Picker
        CALLA   #?Subroutine22
??CrossCallReturnLabel_38:
        MOVX.B  R15, &row_position
        MOV.B   R14, R13
        RETA
          CFI EndBlock cfiCond139
          CFI EndBlock cfiCond140
          CFI EndBlock cfiPicker141

        RSEG `CODE`:CODE:REORDER:NOROOT(1)
?setjmp_save_r4:
        REQUIRE ?setjmp_r4
        REQUIRE ?longjmp_r4

        RSEG `CODE`:CODE:REORDER:NOROOT(1)
?setjmp_save_r5:
        REQUIRE ?setjmp_r5
        REQUIRE ?longjmp_r5

        END
//  574   va_list ap; 
//  575   va_start(ap,fmt);
//  576   vsprintf(OLED_String,fmt,ap);
//  577   uint8_t lastposition=0;
//  578   int length=strlen(OLED_String);
//  579   int TEXT_SIZE=OLED_WIDTH/Font[font].width;
//  580   for(int i=0;i<=length;i++)//查找换行符
//  581   {
//  582     if(OLED_String[i] == '\n')
//  583     {
//  584       uint8_t position=i;
//  585       while(position>lastposition)
//  586       {
//  587         if((position-lastposition)>TEXT_SIZE)//如果一行要显示的字符串数量大于TEXT_SIZE，则也需要换行
//  588         {
//  589            OLED_DispStringLen(font,y,x,&OLED_String[lastposition],TEXT_SIZE);
//  590            y += (Font[font].height/8);//换行
//  591            if(y>(OLED_HEIGHT/Font[font].height - 1))
//  592            {
//  593              y=0;
//  594              OLED_Clear();//全屏填充数据                                                
//  595            }
//  596            x=0;
//  597            lastposition+=TEXT_SIZE;
//  598         }
//  599         else
//  600         {
//  601            OLED_DispStringLen(font,y,x,&OLED_String[lastposition],(position-lastposition));  //显示该行字符串
//  602            for(x+=(position-lastposition)*Font[font].width;x < OLED_WIDTH;x++)   //将该行未显示的部分清零
//  603            {
//  604              OLED_WriteByte(DATA,0);  //写入数据
//  605            }
//  606            break;
//  607         }
//  608       } 
//  609       lastposition=position+1;
//  610       //换行后X=0,y下移一行
//  611       x=0;
//  612       y += (Font[font].height/8);//换行
//  613       if(y>(OLED_HEIGHT/Font[font].height - 1))
//  614       {
//  615          y=0;
//  616          OLED_Clear();
//  617       }
//  618     }
//  619   }
//  620   if(lastposition<length)//没有换行符或有剩余部分没有显示时
//  621   {
//  622     OLED_DispStringLen(font,y,x,&OLED_String[lastposition],(length-lastposition));
//  623     x+=(length-lastposition)*Font[font].width;
//  624     while(x>=(TEXT_SIZE*Font[font].width))
//  625     {
//  626        x-=(TEXT_SIZE*Font[font].width);
//  627        y += (Font[font].height/8);//换行
//  628        if(y>(OLED_HEIGHT/Font[font].height - 1))
//  629        {
//  630          y=0;
//  631          x=0;
//  632          OLED_Clear();
//  633        }
//  634     }
//  635     for(int i=x;i < OLED_WIDTH;i++)   //将该行未显示的部分清零
//  636     {
//  637       OLED_WriteByte(DATA,0);  //写入数据
//  638     }
//  639   }
//  640   va_end(ap);
//  641 }
// 
// 3 064 bytes in segment CODE
//     4 bytes in segment DATA16_AN
// 2 412 bytes in segment DATA20_C
//    32 bytes in segment DATA20_I
//    32 bytes in segment DATA20_ID
// 1 028 bytes in segment DATA20_Z
// 
// 3 064 bytes of CODE  memory
// 2 444 bytes of CONST memory
// 1 060 bytes of DATA  memory (+ 4 bytes shared)
//
//Errors: none
//Warnings: 1
